cintervaltree.intervaltree
IntervalTree
p0
((lp1
cintervaltree.interval
Interval
p2
(I0
I1048576
(dp3
S'md5sum'
p4
S'43807c7be3877c995aab582a25cb8fc0'
p5
stp6
Rp7
ag2
(I1048576
I2097152
(dp8
S'md5sum'
p9
S'568fa7ac2cbefd658cf33c952d20b1a8'
p10
stp11
Rp12
ag2
(I2097152
I3145728
(dp13
S'md5sum'
p14
S'14bdbb56aa98da419eb9e148d6de1857'
p15
stp16
Rp17
ag2
(I3145728
I4194304
(dp18
S'md5sum'
p19
S'eaa9a22d7ee8c7c938c2a4fdede53a4d'
p20
stp21
Rp22
ag2
(I4194304
I5242880
(dp23
S'md5sum'
p24
S'6395f8bb0eb539a2fc15b98ab6295ada'
p25
stp26
Rp27
ag2
(I5242880
I6291456
(dp28
S'md5sum'
p29
S'419a190b217d32353a4615b2b08a7a3a'
p30
stp31
Rp32
ag2
(I6291456
I7340032
(dp33
S'md5sum'
p34
S'5fabfc1ccf37600fb3a0844793adf4ef'
p35
stp36
Rp37
ag2
(I7340032
I8388608
(dp38
S'md5sum'
p39
S'44c77d1ac53a002222bb14d68da40f42'
p40
stp41
Rp42
ag2
(I8388608
I9437184
(dp43
S'md5sum'
p44
S'c1cf4d1e2a643db04d857e6577e2c70a'
p45
stp46
Rp47
ag2
(I9437184
I10485760
(dp48
S'md5sum'
p49
S'32874b0cf7ba391b04e1539fdc8dcf4a'
p50
stp51
Rp52
ag2
(I10485760
I11534336
(dp53
S'md5sum'
p54
S'9f377df2992f228943b6bfb833fd9cb4'
p55
stp56
Rp57
ag2
(I11534336
I12582912
(dp58
S'md5sum'
p59
S'9ad950287939b6dcfb086670e9b1d92b'
p60
stp61
Rp62
ag2
(I12582912
I13631488
(dp63
S'md5sum'
p64
S'bbfb626eb1367ef4589606a0fa80000e'
p65
stp66
Rp67
ag2
(I13631488
I14680064
(dp68
S'md5sum'
p69
S'9b875054ec5e225fb6accf888c4694a4'
p70
stp71
Rp72
ag2
(I14680064
I15728640
(dp73
S'md5sum'
p74
S'75087b7b42ed8632ddd99b9653f41a71'
p75
stp76
Rp77
ag2
(I15728640
I16777216
(dp78
S'md5sum'
p79
S'edce5c79b961f2ea10b6e1977ad04543'
p80
stp81
Rp82
ag2
(I16777216
I17659557
(dp83
S'md5sum'
p84
S'd6d180bf77bf242b5f32cd8b33ea4f13'
p85
stp86
Rp87
ag2
(L17659557L
L18708133L
(dp88
S'md5sum'
p89
S'c768dc6363a5be8100d66a1d402ddd8d'
p90
stp91
Rp92
ag2
(L18708133L
L19756709L
(dp93
S'md5sum'
p94
S'a70b635a781eeb17d7acb29c1e23cf17'
p95
stp96
Rp97
ag2
(L19756709L
L20805285L
(dp98
S'md5sum'
p99
S'2eda9571f7f6c9580d7c4516ef4fe114'
p100
stp101
Rp102
ag2
(L20805285L
L21853861L
(dp103
S'md5sum'
p104
S'b0514dadcd4322877443eb70bf7d12dc'
p105
stp106
Rp107
ag2
(L21853861L
L22902437L
(dp108
S'md5sum'
p109
S'54c2603794990374e10647fb66318e94'
p110
stp111
Rp112
ag2
(L22902437L
L23951013L
(dp113
S'md5sum'
p114
S'd11ab63690eb6619ca12b7a61f6f6506'
p115
stp116
Rp117
ag2
(L23951013L
L24999589L
(dp118
S'md5sum'
p119
S'9059463aa3fff717c0e17848d3c88670'
p120
stp121
Rp122
ag2
(L24999589L
L26048165L
(dp123
S'md5sum'
p124
S'a6c10f4fe1e2b3683a7153008b626258'
p125
stp126
Rp127
ag2
(L26048165L
L27096741L
(dp128
S'md5sum'
p129
S'ba9182dc01b7d8fa5851ed20fa63c866'
p130
stp131
Rp132
ag2
(L27096741L
L28145317L
(dp133
S'md5sum'
p134
S'6debd941477096c5438e4bafedad18ed'
p135
stp136
Rp137
ag2
(L28145317L
L29193893L
(dp138
S'md5sum'
p139
S'a6072b45629d36004940c5534e1df05a'
p140
stp141
Rp142
ag2
(L29193893L
L30242469L
(dp143
S'md5sum'
p144
S'a03b2528bda88c9086dfe11f2ca80d2c'
p145
stp146
Rp147
ag2
(L30242469L
L31291045L
(dp148
S'md5sum'
p149
S'a87393b3822124ce87f5d1c42dde0b73'
p150
stp151
Rp152
ag2
(L31291045L
L32339621L
(dp153
S'md5sum'
p154
S'17509959a93a0ccef173ad67e016a294'
p155
stp156
Rp157
ag2
(L32339621L
L33388197L
(dp158
S'md5sum'
p159
S'ff9b2ed077e48fa657e46e48b9334b25'
p160
stp161
Rp162
ag2
(L33388197L
L34436773L
(dp163
S'md5sum'
p164
S'4654266aed80eafae44954ae583c2c51'
p165
stp166
Rp167
ag2
(L34436773L
L35319114L
(dp168
S'md5sum'
p169
S'543a337284b0246184d9a7feb4110eea'
p170
stp171
Rp172
ag2
(L35319114L
L36367690L
(dp173
S'md5sum'
p174
S'7b42d860cb749266e5f3a9110f608c95'
p175
stp176
Rp177
ag2
(L36367690L
L37416266L
(dp178
S'md5sum'
p179
S'539336cfce22268ba5dc3c8b657a0a64'
p180
stp181
Rp182
ag2
(L37416266L
L38464842L
(dp183
S'md5sum'
p184
S'b29e246b123cc6820b04857b0b846910'
p185
stp186
Rp187
ag2
(L38464842L
L39513418L
(dp188
S'md5sum'
p189
S'b6aa8948ee360b49684069e7aa465507'
p190
stp191
Rp192
ag2
(L39513418L
L40561994L
(dp193
S'md5sum'
p194
S'3fe341ae5fe8c1717f6e711cd72eca06'
p195
stp196
Rp197
ag2
(L40561994L
L41610570L
(dp198
S'md5sum'
p199
S'e1cfd84f56111558a6036ee244ec3228'
p200
stp201
Rp202
ag2
(L41610570L
L42659146L
(dp203
S'md5sum'
p204
S'a67cee66070ef8d51c27096f8ebf304e'
p205
stp206
Rp207
ag2
(L42659146L
L43707722L
(dp208
S'md5sum'
p209
S'a7218b670dcfdf87c8700bd50aea6dc3'
p210
stp211
Rp212
ag2
(L43707722L
L44756298L
(dp213
S'md5sum'
p214
S'877eb06cd8f899b971f9dc64e81f1437'
p215
stp216
Rp217
ag2
(L44756298L
L45804874L
(dp218
S'md5sum'
p219
S'a024233af6514674a5f2239b4f302521'
p220
stp221
Rp222
ag2
(L45804874L
L46853450L
(dp223
S'md5sum'
p224
S'35b1b1d39b350cdc6e8a7ae4c4188166'
p225
stp226
Rp227
ag2
(L46853450L
L47902026L
(dp228
S'md5sum'
p229
S'4c0624d899a1117541e07472bada8500'
p230
stp231
Rp232
ag2
(L47902026L
L48950602L
(dp233
S'md5sum'
p234
S'f8f09208603d7bb84785fd64f803431d'
p235
stp236
Rp237
ag2
(L48950602L
L49999178L
(dp238
S'md5sum'
p239
S'369e333bb1aef7ea173682fd9790d4b5'
p240
stp241
Rp242
ag2
(L49999178L
L51047754L
(dp243
S'md5sum'
p244
S'e4c54c94e609194ae80cf4a3964f8298'
p245
stp246
Rp247
ag2
(L51047754L
L52096330L
(dp248
S'md5sum'
p249
S'432453019b45e8238d80d8565b3e518d'
p250
stp251
Rp252
ag2
(L52096330L
L52978671L
(dp253
S'md5sum'
p254
S'3f9e9a3b9e8b676f8359205e8e6014a1'
p255
stp256
Rp257
ag2
(L52978671L
L54027247L
(dp258
S'md5sum'
p259
S'6a48c5cae5761b11f7e3e7fdec1705f5'
p260
stp261
Rp262
ag2
(L54027247L
L55075823L
(dp263
S'md5sum'
p264
S'b9d95b4f896016a9e1f36c2ab9e30e53'
p265
stp266
Rp267
ag2
(L55075823L
L56124399L
(dp268
S'md5sum'
p269
S'e360795f692df88ed14f79f8950f0fe5'
p270
stp271
Rp272
ag2
(L56124399L
L57172975L
(dp273
S'md5sum'
p274
S'd55337fbbf77d0b3ef119953e1c3c0f4'
p275
stp276
Rp277
ag2
(L57172975L
L58221551L
(dp278
S'md5sum'
p279
S'b6fe0a1ef074112e3185a27e48fad860'
p280
stp281
Rp282
ag2
(L58221551L
L59270127L
(dp283
S'md5sum'
p284
S'7b74283d80daf835b1a8de2a14d5ea53'
p285
stp286
Rp287
ag2
(L59270127L
L60318703L
(dp288
S'md5sum'
p289
S'9aae49bf1355c3a49a903a4d77975504'
p290
stp291
Rp292
ag2
(L60318703L
L61367279L
(dp293
S'md5sum'
p294
S'c4e4f9e13454609964ff7d5c19b33d3f'
p295
stp296
Rp297
ag2
(L61367279L
L62415855L
(dp298
S'md5sum'
p299
S'19c4e8f432d6511a443716ac18ed05be'
p300
stp301
Rp302
ag2
(L62415855L
L63464431L
(dp303
S'md5sum'
p304
S'dba3ccbb0b528d43b198ea9d3bc1b4a7'
p305
stp306
Rp307
ag2
(L63464431L
L64513007L
(dp308
S'md5sum'
p309
S'8eb82424bb3b9dea3b1b8a19038ac768'
p310
stp311
Rp312
ag2
(L64513007L
L65561583L
(dp313
S'md5sum'
p314
S'0d82e1158c826dba4b393514073119cc'
p315
stp316
Rp317
ag2
(L65561583L
L66610159L
(dp318
S'md5sum'
p319
S'8cb96a2dc4c88bb7a9a88916bebee5d0'
p320
stp321
Rp322
ag2
(L66610159L
L67658735L
(dp323
S'md5sum'
p324
S'1b7f37c4a8f39d03b36562fec79f6245'
p325
stp326
Rp327
ag2
(L67658735L
L68707311L
(dp328
S'md5sum'
p329
S'75423da12ec226b5fc39def05ee83173'
p330
stp331
Rp332
ag2
(L68707311L
L69755887L
(dp333
S'md5sum'
p334
S'1c6f679a1efce7b02c294798bf866583'
p335
stp336
Rp337
ag2
(L69755887L
L70638228L
(dp338
S'md5sum'
p339
S'5da4ae1130c3c7357596572bd578b16d'
p340
stp341
Rp342
ag2
(L70638228L
L71686804L
(dp343
S'md5sum'
p344
S'd5463e47fb85f09781660ca43a78fd69'
p345
stp346
Rp347
ag2
(L71686804L
L72735380L
(dp348
S'md5sum'
p349
S'33f17d69c43605ecb831c0892e54a341'
p350
stp351
Rp352
ag2
(L72735380L
L73783956L
(dp353
S'md5sum'
p354
S'746209822a93da176d9805b1ad984cec'
p355
stp356
Rp357
ag2
(L73783956L
L74832532L
(dp358
S'md5sum'
p359
S'2ca2e23c7df66695f2591d0fdc62be8b'
p360
stp361
Rp362
ag2
(L74832532L
L75881108L
(dp363
S'md5sum'
p364
S'7e482c6147466b931524b94462d03ef2'
p365
stp366
Rp367
ag2
(L75881108L
L76929684L
(dp368
S'md5sum'
p369
S'44f8f776beae32413b9bfd518d0d717f'
p370
stp371
Rp372
ag2
(L76929684L
L77978260L
(dp373
S'md5sum'
p374
S'c4cd22ad2d404c41eeb7db05e4c4c499'
p375
stp376
Rp377
ag2
(L77978260L
L79026836L
(dp378
S'md5sum'
p379
S'aed8deb6799518c5a8d260cdc478b4a5'
p380
stp381
Rp382
ag2
(L79026836L
L80075412L
(dp383
S'md5sum'
p384
S'3c204869610c5cf7043fa576403929d2'
p385
stp386
Rp387
ag2
(L80075412L
L81123988L
(dp388
S'md5sum'
p389
S'd5ab84448a735299c495060b2a006ea7'
p390
stp391
Rp392
ag2
(L81123988L
L82172564L
(dp393
S'md5sum'
p394
S'148873c998b4a267d7a0c6834f1d739e'
p395
stp396
Rp397
ag2
(L82172564L
L83221140L
(dp398
S'md5sum'
p399
S'3e81ff49b0810f16ab21f50c70f82957'
p400
stp401
Rp402
ag2
(L83221140L
L84269716L
(dp403
S'md5sum'
p404
S'dc4ce0d0aa761e6309181949728e0f56'
p405
stp406
Rp407
ag2
(L84269716L
L85318292L
(dp408
S'md5sum'
p409
S'8e33200053660d1939a70288257e6fc2'
p410
stp411
Rp412
ag2
(L85318292L
L86366868L
(dp413
S'md5sum'
p414
S'22397794ad964b531ed57ecea4d4a45f'
p415
stp416
Rp417
ag2
(L86366868L
L87415444L
(dp418
S'md5sum'
p419
S'7f21ae780f1557f603fd4cdef6349902'
p420
stp421
Rp422
ag2
(L87415444L
L88297785L
(dp423
S'md5sum'
p424
S'bfc7a0c31ae920e9396bd6149db8dc78'
p425
stp426
Rp427
ag2
(L88297785L
L89346361L
(dp428
S'md5sum'
p429
S'ba99322c2fdc5b84cb520ef0bdc301a4'
p430
stp431
Rp432
ag2
(L89346361L
L90394937L
(dp433
S'md5sum'
p434
S'0edc50baab633dc78a78121af6cbca61'
p435
stp436
Rp437
ag2
(L90394937L
L91443513L
(dp438
S'md5sum'
p439
S'2fec1b4d5edf96d96137742b06a55e96'
p440
stp441
Rp442
ag2
(L91443513L
L92492089L
(dp443
S'md5sum'
p444
S'd3eba09438e3b15fdf28a7cfc222ff34'
p445
stp446
Rp447
ag2
(L92492089L
L93540665L
(dp448
S'md5sum'
p449
S'1a4c15fb694544c18b6fc2174b1cc023'
p450
stp451
Rp452
ag2
(L93540665L
L94589241L
(dp453
S'md5sum'
p454
S'1613bc9baa8c99278964633c50000220'
p455
stp456
Rp457
ag2
(L94589241L
L95637817L
(dp458
S'md5sum'
p459
S'08705c4e29f3ce0fb885b5b2ae0c470f'
p460
stp461
Rp462
ag2
(L95637817L
L96686393L
(dp463
S'md5sum'
p464
S'e92f884155c46d33a414ff9aea597010'
p465
stp466
Rp467
ag2
(L96686393L
L97734969L
(dp468
S'md5sum'
p469
S'd270029405dfa477078741fa04d9a42a'
p470
stp471
Rp472
ag2
(L97734969L
L98783545L
(dp473
S'md5sum'
p474
S'd9eb18def983be6e0b16140cbabbc50d'
p475
stp476
Rp477
ag2
(L98783545L
L99832121L
(dp478
S'md5sum'
p479
S'44168f0fc9bfca19ff37ecfc3a5a2185'
p480
stp481
Rp482
ag2
(L99832121L
L100880697L
(dp483
S'md5sum'
p484
S'8c5164a59113fe97b2945631231347b2'
p485
stp486
Rp487
ag2
(L100880697L
L101929273L
(dp488
S'md5sum'
p489
S'de1f3a9b02c24d93aa4363e3d891f2bc'
p490
stp491
Rp492
ag2
(L101929273L
L102977849L
(dp493
S'md5sum'
p494
S'ce45039d5dae447e1283f98ce2d4c221'
p495
stp496
Rp497
ag2
(L102977849L
L104026425L
(dp498
S'md5sum'
p499
S'72eb370befcfa569cc6f5a77fda01059'
p500
stp501
Rp502
ag2
(L104026425L
L105075001L
(dp503
S'md5sum'
p504
S'2a9afdc548ce1d576156f5213fc77d3b'
p505
stp506
Rp507
ag2
(L105075001L
L105957342L
(dp508
S'md5sum'
p509
S'f00097a6175e8e8d4456c8c9c41a410c'
p510
stp511
Rp512
ag2
(L105957342L
L107005918L
(dp513
S'md5sum'
p514
S'7437341b60eaa65c4587fb8656f42523'
p515
stp516
Rp517
ag2
(L107005918L
L108054494L
(dp518
S'md5sum'
p519
S'367c3b05d0fba0299aa214c4297aa226'
p520
stp521
Rp522
ag2
(L108054494L
L109103070L
(dp523
S'md5sum'
p524
S'1886358a1d45281cb74fcfbadbfea2c9'
p525
stp526
Rp527
ag2
(L109103070L
L110151646L
(dp528
S'md5sum'
p529
S'70c1988a872f588154ec3dc6b90bd3df'
p530
stp531
Rp532
ag2
(L110151646L
L111200222L
(dp533
S'md5sum'
p534
S'a7cbd77ca04e27783c7380fa75c81e5b'
p535
stp536
Rp537
ag2
(L111200222L
L112248798L
(dp538
S'md5sum'
p539
S'a43584bd9c02904132b97b5ea954d916'
p540
stp541
Rp542
ag2
(L112248798L
L113297374L
(dp543
S'md5sum'
p544
S'2cf0ca7500e78abbdf4f6f668ca78bb0'
p545
stp546
Rp547
ag2
(L113297374L
L114345950L
(dp548
S'md5sum'
p549
S'7dfd3874ee4ce43f94d1fde09cc90794'
p550
stp551
Rp552
ag2
(L114345950L
L115394526L
(dp553
S'md5sum'
p554
S'35dd3090b11e42c09977e0a787c1fed6'
p555
stp556
Rp557
ag2
(L115394526L
L116443102L
(dp558
S'md5sum'
p559
S'b13e456bd7f6a72246a5364409d77e91'
p560
stp561
Rp562
ag2
(L116443102L
L117491678L
(dp563
S'md5sum'
p564
S'ee193c411ede0fced83c1ebe31af6934'
p565
stp566
Rp567
ag2
(L117491678L
L118540254L
(dp568
S'md5sum'
p569
S'46e73e22a481f0c96de5ead08db83c4d'
p570
stp571
Rp572
ag2
(L118540254L
L119588830L
(dp573
S'md5sum'
p574
S'8e7b9a67f715f57b219ca2277df02560'
p575
stp576
Rp577
ag2
(L119588830L
L120637406L
(dp578
S'md5sum'
p579
S'877943b1f392dc503a9c1d8ab9d969cf'
p580
stp581
Rp582
ag2
(L120637406L
L121685982L
(dp583
S'md5sum'
p584
S'9bb69344238990f881f3e255b2429464'
p585
stp586
Rp587
ag2
(L121685982L
L122734558L
(dp588
S'md5sum'
p589
S'0d0cb887d4d8fe6a64417b0df3b697cc'
p590
stp591
Rp592
ag2
(L122734558L
L123616899L
(dp593
S'md5sum'
p594
S'6fc8a2609546baacd0c908f8e2a84804'
p595
stp596
Rp597
ag2
(L123616899L
L124665475L
(dp598
S'md5sum'
p599
S'51f10043d9fb6af414211aaac96d162d'
p600
stp601
Rp602
ag2
(L124665475L
L125714051L
(dp603
S'md5sum'
p604
S'de7ccd09506569ed3ffa0de0c3a89d6a'
p605
stp606
Rp607
ag2
(L125714051L
L126762627L
(dp608
S'md5sum'
p609
S'9ef58c9e3962dea870d82c866e18dba5'
p610
stp611
Rp612
ag2
(L126762627L
L127811203L
(dp613
S'md5sum'
p614
S'be5707b14b98a56e530bd6cdb1288668'
p615
stp616
Rp617
ag2
(L127811203L
L128859779L
(dp618
S'md5sum'
p619
S'2d17762c692ad7b07fb2fcb9ddcf37ec'
p620
stp621
Rp622
ag2
(L128859779L
L129908355L
(dp623
S'md5sum'
p624
S'df04b75b13a6865e6cef55a01c8712cd'
p625
stp626
Rp627
ag2
(L129908355L
L130956931L
(dp628
S'md5sum'
p629
S'e904be9ed9077937d52c5dcfbc330d7f'
p630
stp631
Rp632
ag2
(L130956931L
L132005507L
(dp633
S'md5sum'
p634
S'8439a3836142e225db90e4ba3bf3ae79'
p635
stp636
Rp637
ag2
(L132005507L
L133054083L
(dp638
S'md5sum'
p639
S'd4b83f4d00786d40722c9b5ecd587386'
p640
stp641
Rp642
ag2
(L133054083L
L134102659L
(dp643
S'md5sum'
p644
S'ce043f7fcfcd920dad2a54bb10af7940'
p645
stp646
Rp647
ag2
(L134102659L
L135151235L
(dp648
S'md5sum'
p649
S'd012cbfe43d763ae8f4c552d721b1e5b'
p650
stp651
Rp652
ag2
(L135151235L
L136199811L
(dp653
S'md5sum'
p654
S'1519a11fb83ec240554ec982471de938'
p655
stp656
Rp657
ag2
(L136199811L
L137248387L
(dp658
S'md5sum'
p659
S'de41ecde1a6efd8475dc4a8ea65964bb'
p660
stp661
Rp662
ag2
(L137248387L
L138296963L
(dp663
S'md5sum'
p664
S'e7a9ac375573a424cac2729bbd849430'
p665
stp666
Rp667
ag2
(L138296963L
L139345539L
(dp668
S'md5sum'
p669
S'ae999f33f11886c82704750cbb8309c4'
p670
stp671
Rp672
ag2
(L139345539L
L140394115L
(dp673
S'md5sum'
p674
S'4506174d0df0a92c145625bc6a000608'
p675
stp676
Rp677
ag2
(L140394115L
L141276456L
(dp678
S'md5sum'
p679
S'98cea7372fef4f742401b34c894efc6a'
p680
stp681
Rp682
atp683
Rp684
.