cintervaltree.intervaltree
IntervalTree
p0
((lp1
cintervaltree.interval
Interval
p2
(I0
I1048576
(dp3
S'md5sum'
p4
S'91071636c10958d1a1580b5cc2f1f713'
p5
stp6
Rp7
ag2
(I1048576
I2097152
(dp8
S'md5sum'
p9
S'dd5871ea9b7c68719e0bc87453286651'
p10
stp11
Rp12
ag2
(I2097152
I3145728
(dp13
S'md5sum'
p14
S'fdafe49da90d09652c2e3b5c00b770c3'
p15
stp16
Rp17
ag2
(I3145728
I4194304
(dp18
S'md5sum'
p19
S'169185b45adff15f8157d79549da5f55'
p20
stp21
Rp22
ag2
(I4194304
I5242880
(dp23
S'md5sum'
p24
S'2c5e4f8aeb8e7632e375f8e4732777eb'
p25
stp26
Rp27
ag2
(I5242880
I6291456
(dp28
S'md5sum'
p29
S'baf4ee0c7cd29ec288672bc9eabd747b'
p30
stp31
Rp32
ag2
(I6291456
I7340032
(dp33
S'md5sum'
p34
S'478adeb77825d0f513194de8d3533e22'
p35
stp36
Rp37
ag2
(I7340032
I8388608
(dp38
S'md5sum'
p39
S'efa0be06af8169aab2f62bb82648ae5b'
p40
stp41
Rp42
ag2
(I8388608
I9437184
(dp43
S'md5sum'
p44
S'bacf919d83da786dfc2beb0a2f1ba54d'
p45
stp46
Rp47
ag2
(I9437184
I10485760
(dp48
S'md5sum'
p49
S'a56a09f22c4e309193fa7799de5834ba'
p50
stp51
Rp52
ag2
(I10485760
I11534336
(dp53
S'md5sum'
p54
S'c912c97951067cbe2a36fc0aaf9ba1fc'
p55
stp56
Rp57
ag2
(I11534336
I12582912
(dp58
S'md5sum'
p59
S'ed8b1a825d735a4a1e14447525375694'
p60
stp61
Rp62
ag2
(I12582912
I13631488
(dp63
S'md5sum'
p64
S'55bb486a4cfaee4333f06203f8756b05'
p65
stp66
Rp67
ag2
(I13631488
I14680064
(dp68
S'md5sum'
p69
S'5ede2ad8e530b795a2c18b3018c442fa'
p70
stp71
Rp72
ag2
(I14680064
I15728640
(dp73
S'md5sum'
p74
S'4b910115268570b28d4406083bf05046'
p75
stp76
Rp77
ag2
(I15728640
I16777216
(dp78
S'md5sum'
p79
S'e3bd05efa9805a51ac4fb77f86a8787d'
p80
stp81
Rp82
ag2
(I16777216
I17662255
(dp83
S'md5sum'
p84
S'83a322eb3077a5b956d3b53f3ddce9c3'
p85
stp86
Rp87
ag2
(L17662255L
L18710831L
(dp88
S'md5sum'
p89
S'ef1cefa95aa5963e00bb21187e98d3c9'
p90
stp91
Rp92
ag2
(L18710831L
L19759407L
(dp93
S'md5sum'
p94
S'ed0f174564394f2dfd57548cd95d3624'
p95
stp96
Rp97
ag2
(L19759407L
L20807983L
(dp98
S'md5sum'
p99
S'2d9841af49706c86f712c3830201d0a8'
p100
stp101
Rp102
ag2
(L20807983L
L21856559L
(dp103
S'md5sum'
p104
S'ce0fde870a6807a804b12ccd0101bbf0'
p105
stp106
Rp107
ag2
(L21856559L
L22905135L
(dp108
S'md5sum'
p109
S'5c1b00fa4b3be11628b9185cd28a3c70'
p110
stp111
Rp112
ag2
(L22905135L
L23953711L
(dp113
S'md5sum'
p114
S'ee5ace1538b49bf95cfaf928da8e1ddb'
p115
stp116
Rp117
ag2
(L23953711L
L25002287L
(dp118
S'md5sum'
p119
S'307c85ba005a993ab911c6db8634781d'
p120
stp121
Rp122
ag2
(L25002287L
L26050863L
(dp123
S'md5sum'
p124
S'6b78fbb84f0310ebb0a73592366962f1'
p125
stp126
Rp127
ag2
(L26050863L
L27099439L
(dp128
S'md5sum'
p129
S'9a04cc190ec17e593248577ae5e6fb75'
p130
stp131
Rp132
ag2
(L27099439L
L28148015L
(dp133
S'md5sum'
p134
S'c437c0c25844612ee00f177c9f9ec194'
p135
stp136
Rp137
ag2
(L28148015L
L29196591L
(dp138
S'md5sum'
p139
S'546108aa9eb663b10d342b7c22ef97b1'
p140
stp141
Rp142
ag2
(L29196591L
L30245167L
(dp143
S'md5sum'
p144
S'4d8555c0e72bd23b587d14129c014ce8'
p145
stp146
Rp147
ag2
(L30245167L
L31293743L
(dp148
S'md5sum'
p149
S'3171b266a01361a371e6fb0c8618b5af'
p150
stp151
Rp152
ag2
(L31293743L
L32342319L
(dp153
S'md5sum'
p154
S'd2e7a68a2380b321f13ff31d4258d844'
p155
stp156
Rp157
ag2
(L32342319L
L33390895L
(dp158
S'md5sum'
p159
S'48cf545e0651c860e3ca7176567e2269'
p160
stp161
Rp162
ag2
(L33390895L
L34439471L
(dp163
S'md5sum'
p164
S'd39bc8a8fcd2040b3ac4c6e2c072d5f7'
p165
stp166
Rp167
ag2
(L34439471L
L35324510L
(dp168
S'md5sum'
p169
S'49a1beeea86e09bcdc8376e29db4cdd8'
p170
stp171
Rp172
ag2
(L35324510L
L36373086L
(dp173
S'md5sum'
p174
S'31bcb082f7d8808c1d6028c4846a43ff'
p175
stp176
Rp177
ag2
(L36373086L
L37421662L
(dp178
S'md5sum'
p179
S'56c0c538f33739e08bce8957d0ec9172'
p180
stp181
Rp182
ag2
(L37421662L
L38470238L
(dp183
S'md5sum'
p184
S'69fc703661bdbc6d419268c446607ca3'
p185
stp186
Rp187
ag2
(L38470238L
L39518814L
(dp188
S'md5sum'
p189
S'2ab35aa2dd2e04f3d8903bde6e9a290b'
p190
stp191
Rp192
ag2
(L39518814L
L40567390L
(dp193
S'md5sum'
p194
S'749ee668f038edb12c8a514a1bb784e3'
p195
stp196
Rp197
ag2
(L40567390L
L41615966L
(dp198
S'md5sum'
p199
S'c28afddce2b75a31f8f43c0abf731c01'
p200
stp201
Rp202
ag2
(L41615966L
L42664542L
(dp203
S'md5sum'
p204
S'cef02748581adb18b328bd924280f0a3'
p205
stp206
Rp207
ag2
(L42664542L
L43713118L
(dp208
S'md5sum'
p209
S'72edd7d9929a839b402f01a454439304'
p210
stp211
Rp212
ag2
(L43713118L
L44761694L
(dp213
S'md5sum'
p214
S'f5bb2166e8543cf908dc342e9c2df8f8'
p215
stp216
Rp217
ag2
(L44761694L
L45810270L
(dp218
S'md5sum'
p219
S'1e1fe5f89c5ed0a7e4304ec322ace9b4'
p220
stp221
Rp222
ag2
(L45810270L
L46858846L
(dp223
S'md5sum'
p224
S'22a25fc923a6ac6770c4084388c5f4a1'
p225
stp226
Rp227
ag2
(L46858846L
L47907422L
(dp228
S'md5sum'
p229
S'cd7f8e967096b40fc6fef41846a0fa39'
p230
stp231
Rp232
ag2
(L47907422L
L48955998L
(dp233
S'md5sum'
p234
S'e253ba6fdcdac9cadc97fa1d44fcac8a'
p235
stp236
Rp237
ag2
(L48955998L
L50004574L
(dp238
S'md5sum'
p239
S'a26fd9938a54f0629440f11521a23bae'
p240
stp241
Rp242
ag2
(L50004574L
L51053150L
(dp243
S'md5sum'
p244
S'19c8d37a10fe70bfe63c63fb961f4bd0'
p245
stp246
Rp247
ag2
(L51053150L
L52101726L
(dp248
S'md5sum'
p249
S'ebf24146694c4f8498d28a8a8f935a4a'
p250
stp251
Rp252
ag2
(L52101726L
L52986765L
(dp253
S'md5sum'
p254
S'591d8a6480cea12dec506ba0d41b6684'
p255
stp256
Rp257
ag2
(L52986765L
L54035341L
(dp258
S'md5sum'
p259
S'f536b59d68d0d403de5b45412d92c5e2'
p260
stp261
Rp262
ag2
(L54035341L
L55083917L
(dp263
S'md5sum'
p264
S'162196f5e226ff2aa6ced0a2437bc413'
p265
stp266
Rp267
ag2
(L55083917L
L56132493L
(dp268
S'md5sum'
p269
S'e82d29b30e3cc2f758bb5a48646ad7ea'
p270
stp271
Rp272
ag2
(L56132493L
L57181069L
(dp273
S'md5sum'
p274
S'df365415d4f6f11971c36a44ee3289db'
p275
stp276
Rp277
ag2
(L57181069L
L58229645L
(dp278
S'md5sum'
p279
S'c713579917b4214eb3744641b7f6e3b2'
p280
stp281
Rp282
ag2
(L58229645L
L59278221L
(dp283
S'md5sum'
p284
S'8f6911437cc2556dbe21c761288fdccb'
p285
stp286
Rp287
ag2
(L59278221L
L60326797L
(dp288
S'md5sum'
p289
S'6e641840c2de85a3336025df00c46a95'
p290
stp291
Rp292
ag2
(L60326797L
L61375373L
(dp293
S'md5sum'
p294
S'f4ee6de81f640baab8d25c24435dab56'
p295
stp296
Rp297
ag2
(L61375373L
L62423949L
(dp298
S'md5sum'
p299
S'8d76341728683efc349bc2d64bc63cc1'
p300
stp301
Rp302
ag2
(L62423949L
L63472525L
(dp303
S'md5sum'
p304
S'4e95fd97d4e1bb94eb3aac4f37cdb8e1'
p305
stp306
Rp307
ag2
(L63472525L
L64521101L
(dp308
S'md5sum'
p309
S'b8f0562f86f8b552e73b93d4494c4a72'
p310
stp311
Rp312
ag2
(L64521101L
L65569677L
(dp313
S'md5sum'
p314
S'33216c90afc007fd573e77a880743c6d'
p315
stp316
Rp317
ag2
(L65569677L
L66618253L
(dp318
S'md5sum'
p319
S'f625a9585d089abc7de8a001d54028c0'
p320
stp321
Rp322
ag2
(L66618253L
L67666829L
(dp323
S'md5sum'
p324
S'563548ace3762c628c2adfa7cf80d8c9'
p325
stp326
Rp327
ag2
(L67666829L
L68715405L
(dp328
S'md5sum'
p329
S'b4c4b424eae2e8a594f9010760fd0147'
p330
stp331
Rp332
ag2
(L68715405L
L69763981L
(dp333
S'md5sum'
p334
S'51cbe2dfc42a8ef73925d103360671b6'
p335
stp336
Rp337
ag2
(L69763981L
L70649020L
(dp338
S'md5sum'
p339
S'2481bef3fbcc2cc4cd4b9562e8faf7f7'
p340
stp341
Rp342
ag2
(L70649020L
L71697596L
(dp343
S'md5sum'
p344
S'1e4b4762046a341c78493c84dd071741'
p345
stp346
Rp347
ag2
(L71697596L
L72746172L
(dp348
S'md5sum'
p349
S'2125e038a06e48c78123301125aa8bd4'
p350
stp351
Rp352
ag2
(L72746172L
L73794748L
(dp353
S'md5sum'
p354
S'8067cf4c09bb1dbe66510c8d59b99dd8'
p355
stp356
Rp357
ag2
(L73794748L
L74843324L
(dp358
S'md5sum'
p359
S'c2e960dbece31ac6c91721e613ee3d5b'
p360
stp361
Rp362
ag2
(L74843324L
L75891900L
(dp363
S'md5sum'
p364
S'797caf8793f3b42dc8ec723e6d59f428'
p365
stp366
Rp367
ag2
(L75891900L
L76940476L
(dp368
S'md5sum'
p369
S'a36df3920817c2eebbde26f3ded67a58'
p370
stp371
Rp372
ag2
(L76940476L
L77989052L
(dp373
S'md5sum'
p374
S'0430ad3d8970c4f2039b0d7c87e82d79'
p375
stp376
Rp377
ag2
(L77989052L
L79037628L
(dp378
S'md5sum'
p379
S'f9c885b9dff6d5d8b45bde3938685962'
p380
stp381
Rp382
ag2
(L79037628L
L80086204L
(dp383
S'md5sum'
p384
S'bb161b9569b55385034a6a7aa0f833fb'
p385
stp386
Rp387
ag2
(L80086204L
L81134780L
(dp388
S'md5sum'
p389
S'f04f7e1f1fdb62a514a61509239b1436'
p390
stp391
Rp392
ag2
(L81134780L
L82183356L
(dp393
S'md5sum'
p394
S'496aafc5ce395a8adac3e45141dba447'
p395
stp396
Rp397
ag2
(L82183356L
L83231932L
(dp398
S'md5sum'
p399
S'9e4e954dfe2cc17fd9efc46f406fcbf8'
p400
stp401
Rp402
ag2
(L83231932L
L84280508L
(dp403
S'md5sum'
p404
S'd4a098347a35f7d0c992d70cdc88581d'
p405
stp406
Rp407
ag2
(L84280508L
L85329084L
(dp408
S'md5sum'
p409
S'8d71b3c597aeeea888b27a6b1c59c26f'
p410
stp411
Rp412
ag2
(L85329084L
L86377660L
(dp413
S'md5sum'
p414
S'659f26ad1691dab0e1c5d54dc142ab24'
p415
stp416
Rp417
ag2
(L86377660L
L87426236L
(dp418
S'md5sum'
p419
S'5db8939c6e4df39204d0af1909442e35'
p420
stp421
Rp422
ag2
(L87426236L
L88311275L
(dp423
S'md5sum'
p424
S'36a1e1e5fd0dfacbc6bc58ced3fc3537'
p425
stp426
Rp427
ag2
(L88311275L
L89359851L
(dp428
S'md5sum'
p429
S'3fe1c9273605d4b623de9a65c7c0308c'
p430
stp431
Rp432
ag2
(L89359851L
L90408427L
(dp433
S'md5sum'
p434
S'044ee3125b7aa3c85adb9c8a260a45ff'
p435
stp436
Rp437
ag2
(L90408427L
L91457003L
(dp438
S'md5sum'
p439
S'96347c494f193e2b433a87721dbc1be8'
p440
stp441
Rp442
ag2
(L91457003L
L92505579L
(dp443
S'md5sum'
p444
S'669a9819699c641458d57722cb682ac6'
p445
stp446
Rp447
ag2
(L92505579L
L93554155L
(dp448
S'md5sum'
p449
S'5ca9251f7faabda9c352ab37cbf75dbf'
p450
stp451
Rp452
ag2
(L93554155L
L94602731L
(dp453
S'md5sum'
p454
S'9b592a721887703e52365ebbab7a2d59'
p455
stp456
Rp457
ag2
(L94602731L
L95651307L
(dp458
S'md5sum'
p459
S'95c3679ecda912bdcefd2c4d204adaee'
p460
stp461
Rp462
ag2
(L95651307L
L96699883L
(dp463
S'md5sum'
p464
S'5791c1f19681d59c5a985940b8c69764'
p465
stp466
Rp467
ag2
(L96699883L
L97748459L
(dp468
S'md5sum'
p469
S'59c66f87fdb843b88255a2dcfd485486'
p470
stp471
Rp472
ag2
(L97748459L
L98797035L
(dp473
S'md5sum'
p474
S'c9bb0fc9388ea582e839c2e3fa5c8531'
p475
stp476
Rp477
ag2
(L98797035L
L99845611L
(dp478
S'md5sum'
p479
S'a812369920d7d3fcfd5b96be748adb9a'
p480
stp481
Rp482
ag2
(L99845611L
L100894187L
(dp483
S'md5sum'
p484
S'dc9cec422f4052653d7453863f11173b'
p485
stp486
Rp487
ag2
(L100894187L
L101942763L
(dp488
S'md5sum'
p489
S'40b5d4bbaa181a55181f15878ea499a6'
p490
stp491
Rp492
ag2
(L101942763L
L102991339L
(dp493
S'md5sum'
p494
S'15242faf129cff6facd5bfe5b88e95cd'
p495
stp496
Rp497
ag2
(L102991339L
L104039915L
(dp498
S'md5sum'
p499
S'4db54fdce84d4bf51017aa17379de84d'
p500
stp501
Rp502
ag2
(L104039915L
L105088491L
(dp503
S'md5sum'
p504
S'e99b22d5b46decc7e0993a291477c8ae'
p505
stp506
Rp507
ag2
(L105088491L
L105973530L
(dp508
S'md5sum'
p509
S'cc0c5d87648110af20d6b32b31231174'
p510
stp511
Rp512
ag2
(L105973530L
L107022106L
(dp513
S'md5sum'
p514
S'0149775dcc0e84537554cf5a8a09f61f'
p515
stp516
Rp517
ag2
(L107022106L
L108070682L
(dp518
S'md5sum'
p519
S'9ab17c2cae257d1dbaf31eeda2ee78f9'
p520
stp521
Rp522
ag2
(L108070682L
L109119258L
(dp523
S'md5sum'
p524
S'5869102f4489112fd1c0dc8952d35ce4'
p525
stp526
Rp527
ag2
(L109119258L
L110167834L
(dp528
S'md5sum'
p529
S'f0972d86dd913e7c61e9eab68f31f41f'
p530
stp531
Rp532
ag2
(L110167834L
L111216410L
(dp533
S'md5sum'
p534
S'fc3ee97042b19c3c82b173ddf54000c1'
p535
stp536
Rp537
ag2
(L111216410L
L112264986L
(dp538
S'md5sum'
p539
S'14e117fab73052a6e0899eececa51dae'
p540
stp541
Rp542
ag2
(L112264986L
L113313562L
(dp543
S'md5sum'
p544
S'6de0e588f9cd827d6e44a5a12deda92a'
p545
stp546
Rp547
ag2
(L113313562L
L114362138L
(dp548
S'md5sum'
p549
S'3a2b0766e3b675dc8bce40b2a3a302ca'
p550
stp551
Rp552
ag2
(L114362138L
L115410714L
(dp553
S'md5sum'
p554
S'dfe7d165e625b00ece000a4a0a422b2d'
p555
stp556
Rp557
ag2
(L115410714L
L116459290L
(dp558
S'md5sum'
p559
S'6be11fe28945854b2132cfcd4db3002b'
p560
stp561
Rp562
ag2
(L116459290L
L117507866L
(dp563
S'md5sum'
p564
S'0b98907b64c34ee2a448d56f752b7127'
p565
stp566
Rp567
ag2
(L117507866L
L118556442L
(dp568
S'md5sum'
p569
S'd3d9edde5dff54364c90d2b228cdde9b'
p570
stp571
Rp572
ag2
(L118556442L
L119605018L
(dp573
S'md5sum'
p574
S'e6504df71ef4170119b344a842883d8f'
p575
stp576
Rp577
ag2
(L119605018L
L120653594L
(dp578
S'md5sum'
p579
S'bb1a73d64a4cd293334b5e7cccf1f84e'
p580
stp581
Rp582
ag2
(L120653594L
L121702170L
(dp583
S'md5sum'
p584
S'd148201ac83c259d6eff5458e9524673'
p585
stp586
Rp587
ag2
(L121702170L
L122750746L
(dp588
S'md5sum'
p589
S'7d9a92af67e17f61b01e250e048bd950'
p590
stp591
Rp592
ag2
(L122750746L
L123635785L
(dp593
S'md5sum'
p594
S'0998266c84c7cb2a9aff4b94fb931217'
p595
stp596
Rp597
ag2
(L123635785L
L124684361L
(dp598
S'md5sum'
p599
S'ecc1dee94f5a68f1993ae61fe7e643d5'
p600
stp601
Rp602
ag2
(L124684361L
L125732937L
(dp603
S'md5sum'
p604
S'e30637a1b3fa53de09607d0c7061b44f'
p605
stp606
Rp607
ag2
(L125732937L
L126781513L
(dp608
S'md5sum'
p609
S'401dffdb59f1f924a19191cc3ea420f0'
p610
stp611
Rp612
ag2
(L126781513L
L127830089L
(dp613
S'md5sum'
p614
S'0c27f5a75f7ce25de187c57d03ec5188'
p615
stp616
Rp617
ag2
(L127830089L
L128878665L
(dp618
S'md5sum'
p619
S'328a71f165d65b4684c65cdfb0d64c4c'
p620
stp621
Rp622
ag2
(L128878665L
L129927241L
(dp623
S'md5sum'
p624
S'e2cb0853dee3e283b533141ce83f4dba'
p625
stp626
Rp627
ag2
(L129927241L
L130975817L
(dp628
S'md5sum'
p629
S'87dcbf414235b66f4f0e24f76bf3017d'
p630
stp631
Rp632
ag2
(L130975817L
L132024393L
(dp633
S'md5sum'
p634
S'fce43ea514c7da2943658a10e1e9e019'
p635
stp636
Rp637
ag2
(L132024393L
L133072969L
(dp638
S'md5sum'
p639
S'd74eb51b4695322978bac9443f43dc48'
p640
stp641
Rp642
ag2
(L133072969L
L134121545L
(dp643
S'md5sum'
p644
S'5003a38a760a28677baad29058b0557f'
p645
stp646
Rp647
ag2
(L134121545L
L135170121L
(dp648
S'md5sum'
p649
S'5dab7c1d45db70baabb15ec0502dd040'
p650
stp651
Rp652
ag2
(L135170121L
L136218697L
(dp653
S'md5sum'
p654
S'92a41571db215dad0093c3dcc1dd1886'
p655
stp656
Rp657
ag2
(L136218697L
L137267273L
(dp658
S'md5sum'
p659
S'3150c036f435155066a47450f007f2c7'
p660
stp661
Rp662
ag2
(L137267273L
L138315849L
(dp663
S'md5sum'
p664
S'81e6d2ea2ab8af2c2acc8e425c322a61'
p665
stp666
Rp667
ag2
(L138315849L
L139364425L
(dp668
S'md5sum'
p669
S'0531fbefd2fcd53dafba6f9393252539'
p670
stp671
Rp672
ag2
(L139364425L
L140413001L
(dp673
S'md5sum'
p674
S'e69b38e13c96012d3fd463df86060e2c'
p675
stp676
Rp677
ag2
(L140413001L
L141298040L
(dp678
S'md5sum'
p679
S'9d4c950809a3a99e5a895e372a9f52e4'
p680
stp681
Rp682
ag2
(L141298040L
L141298042L
(dp683
S'md5sum'
p684
S'8cf8463b34caa8ac871a52d5dd7ad1ef'
p685
stp686
Rp687
atp688
Rp689
.