cintervaltree.intervaltree
IntervalTree
p0
((lp1
cintervaltree.interval
Interval
p2
(I0
I1048576
(dp3
S'md5sum'
p4
S'09532baf75c459bac03e712fee8db6a5'
p5
stp6
Rp7
ag2
(I1048576
I2097152
(dp8
S'md5sum'
p9
S'b7a51eb57cf9422c5bfac5e1bf67b3b2'
p10
stp11
Rp12
ag2
(I2097152
I3145728
(dp13
S'md5sum'
p14
S'6824d1fa1edd6435a7eebd93cc307bce'
p15
stp16
Rp17
ag2
(I3145728
I4194304
(dp18
S'md5sum'
p19
S'da9ce5796e671f9d842b7a478d0994c2'
p20
stp21
Rp22
ag2
(I4194304
I5242880
(dp23
S'md5sum'
p24
S'a5ca73579860c050c8aba64f78a6cd59'
p25
stp26
Rp27
ag2
(I5242880
I6291456
(dp28
S'md5sum'
p29
S'596126b3afb73b7e58037352b9b59ad8'
p30
stp31
Rp32
ag2
(I6291456
I7340032
(dp33
S'md5sum'
p34
S'2af14d574ff028bfacc367bdee5540e8'
p35
stp36
Rp37
ag2
(I7340032
I8388608
(dp38
S'md5sum'
p39
S'0b83973f57cab431870b306f35c5e09c'
p40
stp41
Rp42
ag2
(I8388608
I9437184
(dp43
S'md5sum'
p44
S'eea986cc6e6454816c89b094a802cf2e'
p45
stp46
Rp47
ag2
(I9437184
I10485760
(dp48
S'md5sum'
p49
S'7c1f53ca4732b1e46e5fb6270b8cb4e3'
p50
stp51
Rp52
ag2
(I10485760
I11534336
(dp53
S'md5sum'
p54
S'f0df71462b60dd5974287172ef3316cb'
p55
stp56
Rp57
ag2
(I11534336
I12582912
(dp58
S'md5sum'
p59
S'694634e6b9b6e61106c68ccc39ea6174'
p60
stp61
Rp62
ag2
(I12582912
I13631488
(dp63
S'md5sum'
p64
S'01d42885c48a344bfe3febfbb0eae297'
p65
stp66
Rp67
ag2
(I13631488
I14680064
(dp68
S'md5sum'
p69
S'4f3fcc65b800191105cc6f38e14df948'
p70
stp71
Rp72
ag2
(I14680064
I15728640
(dp73
S'md5sum'
p74
S'46f4a6a6336436ad41a4814df07d65b2'
p75
stp76
Rp77
ag2
(I15728640
I16777216
(dp78
S'md5sum'
p79
S'4a62ce78870ac55ffea5a01d6e7ffc67'
p80
stp81
Rp82
ag2
(I16777216
I17646688
(dp83
S'md5sum'
p84
S'9a9c395ed5db7d47be91e9b14245b205'
p85
stp86
Rp87
ag2
(L17646688L
L18695264L
(dp88
S'md5sum'
p89
S'896919dc8347cdf45a144996e381491a'
p90
stp91
Rp92
ag2
(L18695264L
L19743840L
(dp93
S'md5sum'
p94
S'e1b8d9edee2a8570b0e496da82e6fdec'
p95
stp96
Rp97
ag2
(L19743840L
L20792416L
(dp98
S'md5sum'
p99
S'0a175149abde6678276f0a93e0952847'
p100
stp101
Rp102
ag2
(L20792416L
L21840992L
(dp103
S'md5sum'
p104
S'55fd222cdf2bef2287d493a7c86a3d9d'
p105
stp106
Rp107
ag2
(L21840992L
L22889568L
(dp108
S'md5sum'
p109
S'a3058a3fc70eaaab8eb1ca0e173d1b21'
p110
stp111
Rp112
ag2
(L22889568L
L23938144L
(dp113
S'md5sum'
p114
S'f23d21550ab69342849f986a67a62c9d'
p115
stp116
Rp117
ag2
(L23938144L
L24986720L
(dp118
S'md5sum'
p119
S'4fbe3b9bfb73b7884b33a5d940afafd2'
p120
stp121
Rp122
ag2
(L24986720L
L26035296L
(dp123
S'md5sum'
p124
S'305e5a36f1cdc1bc71cb1d13515a626e'
p125
stp126
Rp127
ag2
(L26035296L
L27083872L
(dp128
S'md5sum'
p129
S'd47163d93b78d0e949fbd850a3d3bd96'
p130
stp131
Rp132
ag2
(L27083872L
L28132448L
(dp133
S'md5sum'
p134
S'e5931c5136045ae051c6458cd806617e'
p135
stp136
Rp137
ag2
(L28132448L
L29181024L
(dp138
S'md5sum'
p139
S'a683307f33bf99afb7b6a0d6dd88bd1e'
p140
stp141
Rp142
ag2
(L29181024L
L30229600L
(dp143
S'md5sum'
p144
S'1a70369a3ac209a04418d7de160a2169'
p145
stp146
Rp147
ag2
(L30229600L
L31278176L
(dp148
S'md5sum'
p149
S'addd10356cf97f6b03151354f0476fdb'
p150
stp151
Rp152
ag2
(L31278176L
L32326752L
(dp153
S'md5sum'
p154
S'04e785af97dd16d83b9af0cf20c5881c'
p155
stp156
Rp157
ag2
(L32326752L
L33375328L
(dp158
S'md5sum'
p159
S'b1af9b5445782b4bcd14668d91eb9ba2'
p160
stp161
Rp162
ag2
(L33375328L
L34423904L
(dp163
S'md5sum'
p164
S'4c48523b83d158638cd497bd89452adf'
p165
stp166
Rp167
ag2
(L34423904L
L35293376L
(dp168
S'md5sum'
p169
S'bb92e18c42004e035b44f4f8055c66ec'
p170
stp171
Rp172
ag2
(L35293376L
L36341952L
(dp173
S'md5sum'
p174
S'fbff2f9bcc6b849d06e12300f64b10df'
p175
stp176
Rp177
ag2
(L36341952L
L37390528L
(dp178
S'md5sum'
p179
S'86a35fbe0b73e5931a0490fca27efcbc'
p180
stp181
Rp182
ag2
(L37390528L
L38439104L
(dp183
S'md5sum'
p184
S'ac1b645437bf6a20459a06ea626e8447'
p185
stp186
Rp187
ag2
(L38439104L
L39487680L
(dp188
S'md5sum'
p189
S'8761382981cc38245b1d18ac3e8ddcb9'
p190
stp191
Rp192
ag2
(L39487680L
L40536256L
(dp193
S'md5sum'
p194
S'be7503824039d1e553ac9e5c175457f0'
p195
stp196
Rp197
ag2
(L40536256L
L41584832L
(dp198
S'md5sum'
p199
S'24e46c7d6740108ba6a5607c14ea564d'
p200
stp201
Rp202
ag2
(L41584832L
L42633408L
(dp203
S'md5sum'
p204
S'30795a83619549dcc671893b3578c10c'
p205
stp206
Rp207
ag2
(L42633408L
L43681984L
(dp208
S'md5sum'
p209
S'98bb8cca6cc326ebda9b885f14bc12ed'
p210
stp211
Rp212
ag2
(L43681984L
L44730560L
(dp213
S'md5sum'
p214
S'189ed1973bc6a08d419dd24eb90b792e'
p215
stp216
Rp217
ag2
(L44730560L
L45779136L
(dp218
S'md5sum'
p219
S'6c014a538060281b6e74882e9249fcd9'
p220
stp221
Rp222
ag2
(L45779136L
L46827712L
(dp223
S'md5sum'
p224
S'8168d5b0b78098e42038ab6101970efe'
p225
stp226
Rp227
ag2
(L46827712L
L47876288L
(dp228
S'md5sum'
p229
S'6d8b1c685aa841ba6943b8c635dfd5d5'
p230
stp231
Rp232
ag2
(L47876288L
L48924864L
(dp233
S'md5sum'
p234
S'8986f55b6d978e05a2cefd1aae0024c6'
p235
stp236
Rp237
ag2
(L48924864L
L49973440L
(dp238
S'md5sum'
p239
S'de0faf5e2123194fd8ad4f3ed294498b'
p240
stp241
Rp242
ag2
(L49973440L
L51022016L
(dp243
S'md5sum'
p244
S'bc7b0da3a3f7c2a03634c3dbcd72852b'
p245
stp246
Rp247
ag2
(L51022016L
L52070592L
(dp248
S'md5sum'
p249
S'f44642e6a261fd31c3bb1a02acf2bce6'
p250
stp251
Rp252
ag2
(L52070592L
L52940064L
(dp253
S'md5sum'
p254
S'0c6f9e889e76d00472efd40d7cb8075e'
p255
stp256
Rp257
ag2
(L52940064L
L53988640L
(dp258
S'md5sum'
p259
S'100c89dae192029377461619edca1f0e'
p260
stp261
Rp262
ag2
(L53988640L
L55037216L
(dp263
S'md5sum'
p264
S'05c74099d18c108a59d45a3f4c5fbf39'
p265
stp266
Rp267
ag2
(L55037216L
L56085792L
(dp268
S'md5sum'
p269
S'599ebef2a8bf97362a3d6017a849d515'
p270
stp271
Rp272
ag2
(L56085792L
L57134368L
(dp273
S'md5sum'
p274
S'35c866abe0b9f8d32f93c91cac933d80'
p275
stp276
Rp277
ag2
(L57134368L
L58182944L
(dp278
S'md5sum'
p279
S'9ca0ce9b03a0c90e4864921628e39488'
p280
stp281
Rp282
ag2
(L58182944L
L59231520L
(dp283
S'md5sum'
p284
S'3d3d4fb3a95056021a8c6ab324364ad7'
p285
stp286
Rp287
ag2
(L59231520L
L60280096L
(dp288
S'md5sum'
p289
S'b6fd60071dda090661cbc549952aab58'
p290
stp291
Rp292
ag2
(L60280096L
L61328672L
(dp293
S'md5sum'
p294
S'061cc64df03ffaf73c9922df4036fab6'
p295
stp296
Rp297
ag2
(L61328672L
L62377248L
(dp298
S'md5sum'
p299
S'2ce9abd7a05dbc61e3bbe6246c5df11c'
p300
stp301
Rp302
ag2
(L62377248L
L63425824L
(dp303
S'md5sum'
p304
S'aa612e1b7b6dc00fcdc5d99eb25d723e'
p305
stp306
Rp307
ag2
(L63425824L
L64474400L
(dp308
S'md5sum'
p309
S'd018fc1e58bff9d84248a5d1f2dc2685'
p310
stp311
Rp312
ag2
(L64474400L
L65522976L
(dp313
S'md5sum'
p314
S'33d57713fc691676f0170fd7471fb89e'
p315
stp316
Rp317
ag2
(L65522976L
L66571552L
(dp318
S'md5sum'
p319
S'ac69a2acd7f4f82c32bbb28b7856a60c'
p320
stp321
Rp322
ag2
(L66571552L
L67620128L
(dp323
S'md5sum'
p324
S'72f2b252edc4e62df57fc26d7525fce8'
p325
stp326
Rp327
ag2
(L67620128L
L68668704L
(dp328
S'md5sum'
p329
S'40edf13f77072149d3c0d71a757d2e8a'
p330
stp331
Rp332
ag2
(L68668704L
L69717280L
(dp333
S'md5sum'
p334
S'dcf1bfffb817c32d81dcd6cd9506bc44'
p335
stp336
Rp337
ag2
(L69717280L
L70586752L
(dp338
S'md5sum'
p339
S'57872b9cf34f72be6aea680daca960b9'
p340
stp341
Rp342
ag2
(L70586752L
L71635328L
(dp343
S'md5sum'
p344
S'8f61a780d7f5a4e69234fc8b191a06f5'
p345
stp346
Rp347
ag2
(L71635328L
L72683904L
(dp348
S'md5sum'
p349
S'903e0121beca6a1fdbae5713a437425b'
p350
stp351
Rp352
ag2
(L72683904L
L73732480L
(dp353
S'md5sum'
p354
S'a613a5647813be1d2eade3ba6546e994'
p355
stp356
Rp357
ag2
(L73732480L
L74781056L
(dp358
S'md5sum'
p359
S'235d0ccfc67ff366cc94677f0ce55a38'
p360
stp361
Rp362
ag2
(L74781056L
L75829632L
(dp363
S'md5sum'
p364
S'e4cb2ee20ac92dc9e8437786c51c73de'
p365
stp366
Rp367
ag2
(L75829632L
L76878208L
(dp368
S'md5sum'
p369
S'6576db1a998cada2e1375a40028d978f'
p370
stp371
Rp372
ag2
(L76878208L
L77926784L
(dp373
S'md5sum'
p374
S'e0a1eae6cb22de9b4831af01281aa790'
p375
stp376
Rp377
ag2
(L77926784L
L78975360L
(dp378
S'md5sum'
p379
S'638278b726bcbc431434145f574bacaf'
p380
stp381
Rp382
ag2
(L78975360L
L80023936L
(dp383
S'md5sum'
p384
S'24d833b8ceffab58bee6485f1b69dc8a'
p385
stp386
Rp387
ag2
(L80023936L
L81072512L
(dp388
S'md5sum'
p389
S'f2fcfbb563aa0cb469c7a115ba0a6c4a'
p390
stp391
Rp392
ag2
(L81072512L
L82121088L
(dp393
S'md5sum'
p394
S'4e3488006bc774f5ee40012eae0d3fb1'
p395
stp396
Rp397
ag2
(L82121088L
L83169664L
(dp398
S'md5sum'
p399
S'5e80023f5d0d5d43d2593732e7351a13'
p400
stp401
Rp402
ag2
(L83169664L
L84218240L
(dp403
S'md5sum'
p404
S'd741d6901d52c2ea0e642c2ef899a7ca'
p405
stp406
Rp407
ag2
(L84218240L
L85266816L
(dp408
S'md5sum'
p409
S'0c16f5004de39c4fe05895ad96ec8c26'
p410
stp411
Rp412
ag2
(L85266816L
L86315392L
(dp413
S'md5sum'
p414
S'e90ba29aa24d52db8a772e34b7d68242'
p415
stp416
Rp417
ag2
(L86315392L
L87363968L
(dp418
S'md5sum'
p419
S'128f3392bf3d8016f20d18b9dc3c27f7'
p420
stp421
Rp422
ag2
(L87363968L
L88233440L
(dp423
S'md5sum'
p424
S'f851fd9481fbe603c5709fb77e8fce0a'
p425
stp426
Rp427
ag2
(L88233440L
L89282016L
(dp428
S'md5sum'
p429
S'175a25b5ff0f4ea8d36bc1f0bb03f62f'
p430
stp431
Rp432
ag2
(L89282016L
L90330592L
(dp433
S'md5sum'
p434
S'22eee72cce2ebb7fe0266b3be0d2ca27'
p435
stp436
Rp437
ag2
(L90330592L
L91379168L
(dp438
S'md5sum'
p439
S'a9373099d70fd1454d60029a91641de0'
p440
stp441
Rp442
ag2
(L91379168L
L92427744L
(dp443
S'md5sum'
p444
S'277214def17638e1173cb2fee7297eb2'
p445
stp446
Rp447
ag2
(L92427744L
L93476320L
(dp448
S'md5sum'
p449
S'c6138f973898cb297a752de0ce71ff5a'
p450
stp451
Rp452
ag2
(L93476320L
L94524896L
(dp453
S'md5sum'
p454
S'34adff2efc24c646d445c4d06a9bebc0'
p455
stp456
Rp457
ag2
(L94524896L
L95573472L
(dp458
S'md5sum'
p459
S'1145dbc942d0326a14bb273598389ea3'
p460
stp461
Rp462
ag2
(L95573472L
L96622048L
(dp463
S'md5sum'
p464
S'4deb8aad6c4f67cb2f21b551236635d0'
p465
stp466
Rp467
ag2
(L96622048L
L97670624L
(dp468
S'md5sum'
p469
S'8f0a723fcc281afd849a4b0011e0877f'
p470
stp471
Rp472
ag2
(L97670624L
L98719200L
(dp473
S'md5sum'
p474
S'53784c535e94a9c02fdc90662c9aeaeb'
p475
stp476
Rp477
ag2
(L98719200L
L99767776L
(dp478
S'md5sum'
p479
S'10631b41aa570f17cd3c7f73394fc87d'
p480
stp481
Rp482
ag2
(L99767776L
L100816352L
(dp483
S'md5sum'
p484
S'f14fe8cab180d604e017e6ea52076981'
p485
stp486
Rp487
ag2
(L100816352L
L101864928L
(dp488
S'md5sum'
p489
S'33c21085600ce55870530f11ae6df163'
p490
stp491
Rp492
ag2
(L101864928L
L102913504L
(dp493
S'md5sum'
p494
S'320a1658dff640f66c61053645c7e0e9'
p495
stp496
Rp497
ag2
(L102913504L
L103962080L
(dp498
S'md5sum'
p499
S'c170df147814479342083770135baabe'
p500
stp501
Rp502
ag2
(L103962080L
L105010656L
(dp503
S'md5sum'
p504
S'be2d59c4b66708937467a1da87ba7a36'
p505
stp506
Rp507
ag2
(L105010656L
L105880128L
(dp508
S'md5sum'
p509
S'1fd120285e1c1f20c7bf9db55a955ce1'
p510
stp511
Rp512
ag2
(L105880128L
L106928704L
(dp513
S'md5sum'
p514
S'e26bcdbd235223ffdf1126a7e49f6017'
p515
stp516
Rp517
ag2
(L106928704L
L107977280L
(dp518
S'md5sum'
p519
S'd4aa599c3951b7c94ab742898acff061'
p520
stp521
Rp522
ag2
(L107977280L
L109025856L
(dp523
S'md5sum'
p524
S'8b0772d05d293616ce32050df41b2ccb'
p525
stp526
Rp527
ag2
(L109025856L
L110074432L
(dp528
S'md5sum'
p529
S'f8d3663c9bdc8615798a729e3b74d70d'
p530
stp531
Rp532
ag2
(L110074432L
L111123008L
(dp533
S'md5sum'
p534
S'c625dbd9dbc7147b0d2f4dfd902a1ce1'
p535
stp536
Rp537
ag2
(L111123008L
L112171584L
(dp538
S'md5sum'
p539
S'04fdca66533dea6c65d46798ed26d124'
p540
stp541
Rp542
ag2
(L112171584L
L113220160L
(dp543
S'md5sum'
p544
S'd35dcc6f426fd9cb65f83a857ec2f5cb'
p545
stp546
Rp547
ag2
(L113220160L
L114268736L
(dp548
S'md5sum'
p549
S'59808e728e03fe6cae299ded11a4bf13'
p550
stp551
Rp552
ag2
(L114268736L
L115317312L
(dp553
S'md5sum'
p554
S'c3df34f651b340de6909260ea1036feb'
p555
stp556
Rp557
ag2
(L115317312L
L116365888L
(dp558
S'md5sum'
p559
S'869760023a7fec45db33eab4f28c1ef1'
p560
stp561
Rp562
ag2
(L116365888L
L117414464L
(dp563
S'md5sum'
p564
S'42fd1e930f154f14b721088dcb5b20f2'
p565
stp566
Rp567
ag2
(L117414464L
L118463040L
(dp568
S'md5sum'
p569
S'f717fbaa118fbb3fd8f1c60a95684124'
p570
stp571
Rp572
ag2
(L118463040L
L119511616L
(dp573
S'md5sum'
p574
S'32c910335a875eb51e89d04d4e609423'
p575
stp576
Rp577
ag2
(L119511616L
L120560192L
(dp578
S'md5sum'
p579
S'25ab4cb13022a6779029b3a07b671fd4'
p580
stp581
Rp582
ag2
(L120560192L
L121608768L
(dp583
S'md5sum'
p584
S'ebabe39ff5362a9f53f104fdb5fd14dd'
p585
stp586
Rp587
ag2
(L121608768L
L122657344L
(dp588
S'md5sum'
p589
S'8a881c63074b6f0cc4fccc277530e7c7'
p590
stp591
Rp592
ag2
(L122657344L
L123526816L
(dp593
S'md5sum'
p594
S'90036f0da4ec168bad37ea2385de88ef'
p595
stp596
Rp597
ag2
(L123526816L
L124575392L
(dp598
S'md5sum'
p599
S'2859f0286fc20f70497d71e5204e9151'
p600
stp601
Rp602
ag2
(L124575392L
L125623968L
(dp603
S'md5sum'
p604
S'1ebd131dd19101b6343e31c7269463bf'
p605
stp606
Rp607
ag2
(L125623968L
L126672544L
(dp608
S'md5sum'
p609
S'2273dcaa486b3601fca0827cf91a5d0a'
p610
stp611
Rp612
ag2
(L126672544L
L127721120L
(dp613
S'md5sum'
p614
S'6f85ea7674cbd4c8d5eeef23dba4f30e'
p615
stp616
Rp617
ag2
(L127721120L
L128769696L
(dp618
S'md5sum'
p619
S'ab5f06db2efd48820d612c66354cdb09'
p620
stp621
Rp622
ag2
(L128769696L
L129818272L
(dp623
S'md5sum'
p624
S'06d6867810e80ddb6f9dbaa8b6fd39fd'
p625
stp626
Rp627
ag2
(L129818272L
L130866848L
(dp628
S'md5sum'
p629
S'b1aa79ea7bd07bd905010fb6405dd8b3'
p630
stp631
Rp632
ag2
(L130866848L
L131915424L
(dp633
S'md5sum'
p634
S'4d4c5659f12a7af52cc3de8009f58e5b'
p635
stp636
Rp637
ag2
(L131915424L
L132964000L
(dp638
S'md5sum'
p639
S'ddb0623be6a0c53e8e0710959a8b8831'
p640
stp641
Rp642
ag2
(L132964000L
L134012576L
(dp643
S'md5sum'
p644
S'bc550fa0ec03980510d328ca49385a6f'
p645
stp646
Rp647
ag2
(L134012576L
L135061152L
(dp648
S'md5sum'
p649
S'9f36add17ec7c2c8c11f7fe1c2fe016e'
p650
stp651
Rp652
ag2
(L135061152L
L136109728L
(dp653
S'md5sum'
p654
S'f00e09f8c6eaa3a40904eff448be5c73'
p655
stp656
Rp657
ag2
(L136109728L
L137158304L
(dp658
S'md5sum'
p659
S'f1f9c51ce20c5eb7f66910e32ec94a63'
p660
stp661
Rp662
ag2
(L137158304L
L138206880L
(dp663
S'md5sum'
p664
S'e4996b826ef0f53577ebea3d315373c8'
p665
stp666
Rp667
ag2
(L138206880L
L139255456L
(dp668
S'md5sum'
p669
S'1e788babf6d7c16730b7a894eae70034'
p670
stp671
Rp672
ag2
(L139255456L
L140304032L
(dp673
S'md5sum'
p674
S'0a1a68bd36fd446b941a08d671aeb67c'
p675
stp676
Rp677
ag2
(L140304032L
L141173504L
(dp678
S'md5sum'
p679
S'fef5225897e6226af03f7f95be165802'
p680
stp681
Rp682
atp683
Rp684
.