cintervaltree.intervaltree
IntervalTree
p0
((lp1
cintervaltree.interval
Interval
p2
(I0
I1048576
(dp3
S'md5sum'
p4
S'70b71dc364a0b13d898f5871dee44311'
p5
stp6
Rp7
ag2
(I1048576
I2097152
(dp8
S'md5sum'
p9
S'690214d30e01ef346e12ae7639b83827'
p10
stp11
Rp12
ag2
(I2097152
I3145728
(dp13
S'md5sum'
p14
S'1c84f4eacb1a07ea8b49e56849317306'
p15
stp16
Rp17
ag2
(I3145728
I4194304
(dp18
S'md5sum'
p19
S'b2bcd44b219dca9cdab3ae26cd6bad31'
p20
stp21
Rp22
ag2
(I4194304
I5242880
(dp23
S'md5sum'
p24
S'3252364686222be6f28d639248459a88'
p25
stp26
Rp27
ag2
(I5242880
I6291456
(dp28
S'md5sum'
p29
S'd424fd488445fd81af8184385deb6900'
p30
stp31
Rp32
ag2
(I6291456
I7340032
(dp33
S'md5sum'
p34
S'a6d7dab351fb664cadd4b5da034b19c3'
p35
stp36
Rp37
ag2
(I7340032
I8388608
(dp38
S'md5sum'
p39
S'912cfe11e2c0ab5230de2d9ee3af47d4'
p40
stp41
Rp42
ag2
(I8388608
I9437184
(dp43
S'md5sum'
p44
S'b3607b9d1bbf2d93f2c350167ac07ac3'
p45
stp46
Rp47
ag2
(I9437184
I10485760
(dp48
S'md5sum'
p49
S'e55e09ed1db0a20dd590302e04a62740'
p50
stp51
Rp52
ag2
(I10485760
I11534336
(dp53
S'md5sum'
p54
S'8a3e11d6ad57784b77a07c6179b24427'
p55
stp56
Rp57
ag2
(I11534336
I12582912
(dp58
S'md5sum'
p59
S'3e15e302854c15667b79620072d0f35d'
p60
stp61
Rp62
ag2
(I12582912
I13631488
(dp63
S'md5sum'
p64
S'868b4a64f2d5b2d3bf0efe0247d31a25'
p65
stp66
Rp67
ag2
(I13631488
I14680064
(dp68
S'md5sum'
p69
S'67a1cb29892d5892d2926d7819647d16'
p70
stp71
Rp72
ag2
(I14680064
I15728640
(dp73
S'md5sum'
p74
S'15641b7203538228f6ee1718b33eaec3'
p75
stp76
Rp77
ag2
(I15728640
I16777216
(dp78
S'md5sum'
p79
S'7bfc49cebf4171a3e0b510d84365c844'
p80
stp81
Rp82
ag2
(I16777216
I17659704
(dp83
S'md5sum'
p84
S'efe2ed646bec0f9cb069671b82e30a7b'
p85
stp86
Rp87
ag2
(L17659704L
L18708280L
(dp88
S'md5sum'
p89
S'3cdcdd573dd4d3cbbc382e3ca1ecd4bc'
p90
stp91
Rp92
ag2
(L18708280L
L19756856L
(dp93
S'md5sum'
p94
S'd424143640f79034147d2c4285a7cddc'
p95
stp96
Rp97
ag2
(L19756856L
L20805432L
(dp98
S'md5sum'
p99
S'fc85c6fa82f289fa1585eceb92fd6d3f'
p100
stp101
Rp102
ag2
(L20805432L
L21854008L
(dp103
S'md5sum'
p104
S'2d8af1f8195c4a9c688e99f3a54005e5'
p105
stp106
Rp107
ag2
(L21854008L
L22902584L
(dp108
S'md5sum'
p109
S'43f76fefadaef94498b119324a742d91'
p110
stp111
Rp112
ag2
(L22902584L
L23951160L
(dp113
S'md5sum'
p114
S'7ee4e5c8fbe2b2e443be88823edf9cc5'
p115
stp116
Rp117
ag2
(L23951160L
L24999736L
(dp118
S'md5sum'
p119
S'f68b380ad4fdeb8c9bc0ceb2f9c16a10'
p120
stp121
Rp122
ag2
(L24999736L
L26048312L
(dp123
S'md5sum'
p124
S'2ec037551e17e1bfa9424886ba328056'
p125
stp126
Rp127
ag2
(L26048312L
L27096888L
(dp128
S'md5sum'
p129
S'5f82ce3c4ba98f6fdf7856585422ce51'
p130
stp131
Rp132
ag2
(L27096888L
L28145464L
(dp133
S'md5sum'
p134
S'fead20740f5066860f34a1475d666220'
p135
stp136
Rp137
ag2
(L28145464L
L29194040L
(dp138
S'md5sum'
p139
S'668d5b7450d68bd545ec40d5b14bce01'
p140
stp141
Rp142
ag2
(L29194040L
L30242616L
(dp143
S'md5sum'
p144
S'c06437edb2aa0815f00197b715e5878c'
p145
stp146
Rp147
ag2
(L30242616L
L31291192L
(dp148
S'md5sum'
p149
S'bb5d8a492ee230812eebc88b5a92bfc4'
p150
stp151
Rp152
ag2
(L31291192L
L32339768L
(dp153
S'md5sum'
p154
S'c82c06cb9e8e785463847e93499fc4f0'
p155
stp156
Rp157
ag2
(L32339768L
L33388344L
(dp158
S'md5sum'
p159
S'18fcd6ec9e7fa51e430085afc4a445c1'
p160
stp161
Rp162
ag2
(L33388344L
L34436920L
(dp163
S'md5sum'
p164
S'6968c3b6dd17891f4ca7ed64cc325a2e'
p165
stp166
Rp167
ag2
(L34436920L
L35319408L
(dp168
S'md5sum'
p169
S'868e3218350326a804824070681e9e4e'
p170
stp171
Rp172
ag2
(L35319408L
L36367984L
(dp173
S'md5sum'
p174
S'8ece3d0a04728fd33c06367ee67669c0'
p175
stp176
Rp177
ag2
(L36367984L
L37416560L
(dp178
S'md5sum'
p179
S'f9ccc33672acac48d4df16fcdebf6c2b'
p180
stp181
Rp182
ag2
(L37416560L
L38465136L
(dp183
S'md5sum'
p184
S'9831ae1a9b61c54af237d364a5c5cd38'
p185
stp186
Rp187
ag2
(L38465136L
L39513712L
(dp188
S'md5sum'
p189
S'03bd96237bec61978a7afd7e75940157'
p190
stp191
Rp192
ag2
(L39513712L
L40562288L
(dp193
S'md5sum'
p194
S'8082715852bcb064e2f88184a7b85c28'
p195
stp196
Rp197
ag2
(L40562288L
L41610864L
(dp198
S'md5sum'
p199
S'65f5c601fb4311891db9d8a345ee5013'
p200
stp201
Rp202
ag2
(L41610864L
L42659440L
(dp203
S'md5sum'
p204
S'cc4b0a027f5e124bf853971194fb672e'
p205
stp206
Rp207
ag2
(L42659440L
L43708016L
(dp208
S'md5sum'
p209
S'6344a8cb5dbeb3f652ba617166b6507c'
p210
stp211
Rp212
ag2
(L43708016L
L44756592L
(dp213
S'md5sum'
p214
S'bd7076ef0ec34ff0b2da9844c2e48109'
p215
stp216
Rp217
ag2
(L44756592L
L45805168L
(dp218
S'md5sum'
p219
S'8b321756dc345f23166babce65b44514'
p220
stp221
Rp222
ag2
(L45805168L
L46853744L
(dp223
S'md5sum'
p224
S'0feab980fbeb75ddbe25a9b30aae0372'
p225
stp226
Rp227
ag2
(L46853744L
L47902320L
(dp228
S'md5sum'
p229
S'3984e51f67611c064392fc96c2759356'
p230
stp231
Rp232
ag2
(L47902320L
L48950896L
(dp233
S'md5sum'
p234
S'f775bf0a08c1d615a460f21a19ced1bc'
p235
stp236
Rp237
ag2
(L48950896L
L49999472L
(dp238
S'md5sum'
p239
S'88edd2aff1904049a595c0f4abbf8a73'
p240
stp241
Rp242
ag2
(L49999472L
L51048048L
(dp243
S'md5sum'
p244
S'0ed65090ce2193a98445de0a16bf81b2'
p245
stp246
Rp247
ag2
(L51048048L
L52096624L
(dp248
S'md5sum'
p249
S'0834a6fb98fb19020258c3f1532aa451'
p250
stp251
Rp252
ag2
(L52096624L
L52979112L
(dp253
S'md5sum'
p254
S'3461083359c6da182819103a96689cd5'
p255
stp256
Rp257
ag2
(L52979112L
L54027688L
(dp258
S'md5sum'
p259
S'775f6115dbef1663d98194bb69e3fbea'
p260
stp261
Rp262
ag2
(L54027688L
L55076264L
(dp263
S'md5sum'
p264
S'56d7e3220612c2a33e2c7f291509c502'
p265
stp266
Rp267
ag2
(L55076264L
L56124840L
(dp268
S'md5sum'
p269
S'bd348eec59c8d33634bf45e04c87eff4'
p270
stp271
Rp272
ag2
(L56124840L
L57173416L
(dp273
S'md5sum'
p274
S'53b3bca6f5f896bff0cd5024e3947867'
p275
stp276
Rp277
ag2
(L57173416L
L58221992L
(dp278
S'md5sum'
p279
S'ea1dd585a39d13de7792a5d28da8ee18'
p280
stp281
Rp282
ag2
(L58221992L
L59270568L
(dp283
S'md5sum'
p284
S'f26fd5ce659b14eada019bcd467a0cc5'
p285
stp286
Rp287
ag2
(L59270568L
L60319144L
(dp288
S'md5sum'
p289
S'9dee7a86a53550dbfd47ee3a415ce14e'
p290
stp291
Rp292
ag2
(L60319144L
L61367720L
(dp293
S'md5sum'
p294
S'7cd4ab787d51cbab47dc08b7c9408cbf'
p295
stp296
Rp297
ag2
(L61367720L
L62416296L
(dp298
S'md5sum'
p299
S'93762e1925489ee1f248a14d7cdf55d2'
p300
stp301
Rp302
ag2
(L62416296L
L63464872L
(dp303
S'md5sum'
p304
S'acba98dd46e31c9a6d431d796957221f'
p305
stp306
Rp307
ag2
(L63464872L
L64513448L
(dp308
S'md5sum'
p309
S'c100d718f020aa1e9705cd72506e85b6'
p310
stp311
Rp312
ag2
(L64513448L
L65562024L
(dp313
S'md5sum'
p314
S'17cf8df4165c552ed97081f78a371d0f'
p315
stp316
Rp317
ag2
(L65562024L
L66610600L
(dp318
S'md5sum'
p319
S'e097f738d2fb59f747cdd66be80308b6'
p320
stp321
Rp322
ag2
(L66610600L
L67659176L
(dp323
S'md5sum'
p324
S'7375a84de0757097d1467a258a3fb3d9'
p325
stp326
Rp327
ag2
(L67659176L
L68707752L
(dp328
S'md5sum'
p329
S'8f83a92634c80a444406d5704ace7b1e'
p330
stp331
Rp332
ag2
(L68707752L
L69756328L
(dp333
S'md5sum'
p334
S'abc7d9892af140503edd69333eaeb651'
p335
stp336
Rp337
ag2
(L69756328L
L70638816L
(dp338
S'md5sum'
p339
S'4a09524df02b7cab60111cac70a48d7d'
p340
stp341
Rp342
ag2
(L70638816L
L71687392L
(dp343
S'md5sum'
p344
S'9eb263cf48bbe354d2b5197aec34285c'
p345
stp346
Rp347
ag2
(L71687392L
L72735968L
(dp348
S'md5sum'
p349
S'f7c98e870417bb007f848130e50447d7'
p350
stp351
Rp352
ag2
(L72735968L
L73784544L
(dp353
S'md5sum'
p354
S'1791dbd2f293c3d4f793ba9c2ce678e8'
p355
stp356
Rp357
ag2
(L73784544L
L74833120L
(dp358
S'md5sum'
p359
S'e10a196e96851584e9fabd93bb61aa59'
p360
stp361
Rp362
ag2
(L74833120L
L75881696L
(dp363
S'md5sum'
p364
S'ebf91732fdb0cc9a9b253a92a5f0a4a8'
p365
stp366
Rp367
ag2
(L75881696L
L76930272L
(dp368
S'md5sum'
p369
S'140dbe70c76a17d894b562118118c5d9'
p370
stp371
Rp372
ag2
(L76930272L
L77978848L
(dp373
S'md5sum'
p374
S'f286607d5d740833c8c545d28367af15'
p375
stp376
Rp377
ag2
(L77978848L
L79027424L
(dp378
S'md5sum'
p379
S'351f05d7a57128e89ba0db567cc5b993'
p380
stp381
Rp382
ag2
(L79027424L
L80076000L
(dp383
S'md5sum'
p384
S'ac7c1383924c31058aacd7d67eb93a73'
p385
stp386
Rp387
ag2
(L80076000L
L81124576L
(dp388
S'md5sum'
p389
S'376cefbdfbc8b971df9379b0bc059751'
p390
stp391
Rp392
ag2
(L81124576L
L82173152L
(dp393
S'md5sum'
p394
S'025a666f088e0156e784c89bf27f6585'
p395
stp396
Rp397
ag2
(L82173152L
L83221728L
(dp398
S'md5sum'
p399
S'a69894d330334d286cbe480f1263f864'
p400
stp401
Rp402
ag2
(L83221728L
L84270304L
(dp403
S'md5sum'
p404
S'dc8f4406172380adc0f3c2abc19019a6'
p405
stp406
Rp407
ag2
(L84270304L
L85318880L
(dp408
S'md5sum'
p409
S'9e693aa5b5a363d0b658dc77a564ecda'
p410
stp411
Rp412
ag2
(L85318880L
L86367456L
(dp413
S'md5sum'
p414
S'96cff6c72baf7ba88d03806f458ae73c'
p415
stp416
Rp417
ag2
(L86367456L
L87416032L
(dp418
S'md5sum'
p419
S'e8a94270942582dc0cecc08efc6f9c88'
p420
stp421
Rp422
ag2
(L87416032L
L88298520L
(dp423
S'md5sum'
p424
S'b37441139494ed8ef9dea85b7da1b7e7'
p425
stp426
Rp427
ag2
(L88298520L
L89347096L
(dp428
S'md5sum'
p429
S'69ec3c57b5075e8122588043953b5e39'
p430
stp431
Rp432
ag2
(L89347096L
L90395672L
(dp433
S'md5sum'
p434
S'95b3918549581a994e51cafa24fa18ce'
p435
stp436
Rp437
ag2
(L90395672L
L91444248L
(dp438
S'md5sum'
p439
S'7cd1ed61452e465909ce38dfa4553980'
p440
stp441
Rp442
ag2
(L91444248L
L92492824L
(dp443
S'md5sum'
p444
S'84ec9c91826b1021ff04bcf4645570dd'
p445
stp446
Rp447
ag2
(L92492824L
L93541400L
(dp448
S'md5sum'
p449
S'de71e9703bebda998d952615b2a88999'
p450
stp451
Rp452
ag2
(L93541400L
L94589976L
(dp453
S'md5sum'
p454
S'813342a2619621dbe6cb8ea28f20ab9a'
p455
stp456
Rp457
ag2
(L94589976L
L95638552L
(dp458
S'md5sum'
p459
S'11de08b283e9e1f7c9ea982a69723361'
p460
stp461
Rp462
ag2
(L95638552L
L96687128L
(dp463
S'md5sum'
p464
S'394e5322e2a4d795b04b1bd4bbbc88e0'
p465
stp466
Rp467
ag2
(L96687128L
L97735704L
(dp468
S'md5sum'
p469
S'e6da02754c726eae53a2a3374e10e741'
p470
stp471
Rp472
ag2
(L97735704L
L98784280L
(dp473
S'md5sum'
p474
S'443a2c69091219eb286372d49455845d'
p475
stp476
Rp477
ag2
(L98784280L
L99832856L
(dp478
S'md5sum'
p479
S'd53f3d3feebab99ae56236f2454d1d17'
p480
stp481
Rp482
ag2
(L99832856L
L100881432L
(dp483
S'md5sum'
p484
S'ea3d0f332c41d73cdee6a61cb7db9d3f'
p485
stp486
Rp487
ag2
(L100881432L
L101930008L
(dp488
S'md5sum'
p489
S'aa4b84f340368f2d3ccb5368f9b70490'
p490
stp491
Rp492
ag2
(L101930008L
L102978584L
(dp493
S'md5sum'
p494
S'29d2c673e3e1e79bc369286bf1ab9b63'
p495
stp496
Rp497
ag2
(L102978584L
L104027160L
(dp498
S'md5sum'
p499
S'3fb437bbaa1d772cec167725445980d6'
p500
stp501
Rp502
ag2
(L104027160L
L105075736L
(dp503
S'md5sum'
p504
S'd54e2393f59cbe35d5f8bdd498086180'
p505
stp506
Rp507
ag2
(L105075736L
L105958224L
(dp508
S'md5sum'
p509
S'9e5303d1a155b50c8aaca2545e3b7f3e'
p510
stp511
Rp512
ag2
(L105958224L
L107006800L
(dp513
S'md5sum'
p514
S'312930bcc6124e4067d126f3cff1366d'
p515
stp516
Rp517
ag2
(L107006800L
L108055376L
(dp518
S'md5sum'
p519
S'530369b5323810b68ad0d652b0c8c688'
p520
stp521
Rp522
ag2
(L108055376L
L109103952L
(dp523
S'md5sum'
p524
S'4b2949c4305c48a1d4d6f33c06446ae0'
p525
stp526
Rp527
ag2
(L109103952L
L110152528L
(dp528
S'md5sum'
p529
S'f3926984431ebc2fb2eaf7aca8c6743f'
p530
stp531
Rp532
ag2
(L110152528L
L111201104L
(dp533
S'md5sum'
p534
S'291606393c26076d903127a56f2e123a'
p535
stp536
Rp537
ag2
(L111201104L
L112249680L
(dp538
S'md5sum'
p539
S'6d56f6be2652c2f988a1070e48d95a7a'
p540
stp541
Rp542
ag2
(L112249680L
L113298256L
(dp543
S'md5sum'
p544
S'248364fe0b724e542cf4d49f52a45431'
p545
stp546
Rp547
ag2
(L113298256L
L114346832L
(dp548
S'md5sum'
p549
S'1f8e0ea149331472b2d74980372f5242'
p550
stp551
Rp552
ag2
(L114346832L
L115395408L
(dp553
S'md5sum'
p554
S'e89a3d7f8b94267f9f6e519bfea23a3b'
p555
stp556
Rp557
ag2
(L115395408L
L116443984L
(dp558
S'md5sum'
p559
S'3c4ccc055533ff1ae830f4159eea20c9'
p560
stp561
Rp562
ag2
(L116443984L
L117492560L
(dp563
S'md5sum'
p564
S'df5c84395002ce82629b0fa88343ee0f'
p565
stp566
Rp567
ag2
(L117492560L
L118541136L
(dp568
S'md5sum'
p569
S'aa3953981cd198b7d17798ed1863683d'
p570
stp571
Rp572
ag2
(L118541136L
L119589712L
(dp573
S'md5sum'
p574
S'4969b9949e628f317dbe4766436da34f'
p575
stp576
Rp577
ag2
(L119589712L
L120638288L
(dp578
S'md5sum'
p579
S'7c9e1da7044e093776ccb47aa4f6b092'
p580
stp581
Rp582
ag2
(L120638288L
L121686864L
(dp583
S'md5sum'
p584
S'd4194806a167e680a70527eccd424b9b'
p585
stp586
Rp587
ag2
(L121686864L
L122735440L
(dp588
S'md5sum'
p589
S'69eab899a6afb5c568214e2034171e52'
p590
stp591
Rp592
ag2
(L122735440L
L123617928L
(dp593
S'md5sum'
p594
S'924b9521fa5b1080dd0d2b20771d24b1'
p595
stp596
Rp597
ag2
(L123617928L
L124666504L
(dp598
S'md5sum'
p599
S'8006dcaaf35c7c4f1eb62b8467a717a1'
p600
stp601
Rp602
ag2
(L124666504L
L125715080L
(dp603
S'md5sum'
p604
S'4f8e8972b80dda0088175228dbe44113'
p605
stp606
Rp607
ag2
(L125715080L
L126763656L
(dp608
S'md5sum'
p609
S'2e2590b6e994cfab0884c57bd1be14a5'
p610
stp611
Rp612
ag2
(L126763656L
L127812232L
(dp613
S'md5sum'
p614
S'32eb8b8033646239c72c160c3620c39a'
p615
stp616
Rp617
ag2
(L127812232L
L128860808L
(dp618
S'md5sum'
p619
S'8d2495eec45cafc06c82f5c183c3e673'
p620
stp621
Rp622
ag2
(L128860808L
L129909384L
(dp623
S'md5sum'
p624
S'71e5195f91017f416bf4bbd60d7bc700'
p625
stp626
Rp627
ag2
(L129909384L
L130957960L
(dp628
S'md5sum'
p629
S'9c13a523c75b79e5599cb030cfd5b172'
p630
stp631
Rp632
ag2
(L130957960L
L132006536L
(dp633
S'md5sum'
p634
S'e461a2ed49d47f5274c4f14c0bbc5b83'
p635
stp636
Rp637
ag2
(L132006536L
L133055112L
(dp638
S'md5sum'
p639
S'f947646e27a9d446cfad5dd714db50d0'
p640
stp641
Rp642
ag2
(L133055112L
L134103688L
(dp643
S'md5sum'
p644
S'20b1ca86ba5b3835c7cf70a5f6c6bf8f'
p645
stp646
Rp647
ag2
(L134103688L
L135152264L
(dp648
S'md5sum'
p649
S'1eb52bedbb2a5010a8a5b95e0498fea2'
p650
stp651
Rp652
ag2
(L135152264L
L136200840L
(dp653
S'md5sum'
p654
S'ff4fce768e16bcec68aceebea0a750ed'
p655
stp656
Rp657
ag2
(L136200840L
L137249416L
(dp658
S'md5sum'
p659
S'a8cb198c520f1dfb6fbc1f43baef0a8d'
p660
stp661
Rp662
ag2
(L137249416L
L138297992L
(dp663
S'md5sum'
p664
S'742561a8ad61c32f989f9e6e99b5807d'
p665
stp666
Rp667
ag2
(L138297992L
L139346568L
(dp668
S'md5sum'
p669
S'66428ff83302ce25a2822d136b196daa'
p670
stp671
Rp672
ag2
(L139346568L
L140395144L
(dp673
S'md5sum'
p674
S'f07c4913e8d39cd02004d67888f2c7f0'
p675
stp676
Rp677
ag2
(L140395144L
L141277632L
(dp678
S'md5sum'
p679
S'41713af28f168ad500c9fe11432209fa'
p680
stp681
Rp682
ag2
(L141277632L
L141277633L
(dp683
S'md5sum'
p684
S'68b329da9893e34099c7d8ad5cb9c940'
p685
stp686
Rp687
atp688
Rp689
.