cintervaltree.intervaltree
IntervalTree
p0
((lp1
cintervaltree.interval
Interval
p2
(I0
I1048576
(dp3
S'md5sum'
p4
S'396e5932bd0188f34c6ef5f07375ddc4'
p5
stp6
Rp7
ag2
(I1048576
I2097152
(dp8
S'md5sum'
p9
S'99cc677469764abe89bfa18fbf30bbd0'
p10
stp11
Rp12
ag2
(I2097152
I3145728
(dp13
S'md5sum'
p14
S'e60ee8d809f23274ee88979b63705ed9'
p15
stp16
Rp17
ag2
(I3145728
I4194304
(dp18
S'md5sum'
p19
S'52a6a0d753db649cb21c0bb059af3818'
p20
stp21
Rp22
ag2
(I4194304
I5242880
(dp23
S'md5sum'
p24
S'51fcf8950ef2f61ca4a5f2bb02aa081e'
p25
stp26
Rp27
ag2
(I5242880
I6291456
(dp28
S'md5sum'
p29
S'6cf16269898135d1807166410590610b'
p30
stp31
Rp32
ag2
(I6291456
I7340032
(dp33
S'md5sum'
p34
S'50d1feceb6cd5b68207000d276ba7b77'
p35
stp36
Rp37
ag2
(I7340032
I8388608
(dp38
S'md5sum'
p39
S'5fd9fc6daed3d166a0c09157dacecc74'
p40
stp41
Rp42
ag2
(I8388608
I9437184
(dp43
S'md5sum'
p44
S'1d0fb5f99ffbb0de8778a36e654d41b4'
p45
stp46
Rp47
ag2
(I9437184
I10485760
(dp48
S'md5sum'
p49
S'8fd7b5aad6017de5d447a2bf12876661'
p50
stp51
Rp52
ag2
(I10485760
I11534336
(dp53
S'md5sum'
p54
S'fb74d20842c81b2a57e24e9d44d203da'
p55
stp56
Rp57
ag2
(I11534336
I12582912
(dp58
S'md5sum'
p59
S'534d0e92964477578bf5479a5ae432c5'
p60
stp61
Rp62
ag2
(I12582912
I13631488
(dp63
S'md5sum'
p64
S'62151b30419e9f537412faf0f00cfaa7'
p65
stp66
Rp67
ag2
(I13631488
I14680064
(dp68
S'md5sum'
p69
S'a7024c736cfea02671d21b777c13383b'
p70
stp71
Rp72
ag2
(I14680064
I15728640
(dp73
S'md5sum'
p74
S'37c4b1aa98d98925cbdaabd7a6a31b6c'
p75
stp76
Rp77
ag2
(I15728640
I16777216
(dp78
S'md5sum'
p79
S'220c96b95ced7a3bbbb6f24b2b8c1385'
p80
stp81
Rp82
ag2
(I16777216
I17660810
(dp83
S'md5sum'
p84
S'4e6a7d810cc2c4af254b28fc84e332de'
p85
stp86
Rp87
ag2
(L17660810L
L18709386L
(dp88
S'md5sum'
p89
S'534fea8ce389f23b3dda1a23dc9d5e6a'
p90
stp91
Rp92
ag2
(L18709386L
L19757962L
(dp93
S'md5sum'
p94
S'd5234cc08a9d922ef13436043d9ddff1'
p95
stp96
Rp97
ag2
(L19757962L
L20806538L
(dp98
S'md5sum'
p99
S'd572d553c4df8b5d820da4b1d2887e98'
p100
stp101
Rp102
ag2
(L20806538L
L21855114L
(dp103
S'md5sum'
p104
S'3d41cbe09ce3ea0ce627d58b9615b849'
p105
stp106
Rp107
ag2
(L21855114L
L22903690L
(dp108
S'md5sum'
p109
S'7c6db87ce34426428f494a54344b55c8'
p110
stp111
Rp112
ag2
(L22903690L
L23952266L
(dp113
S'md5sum'
p114
S'0ec704c15797fcdedad754802fd865f9'
p115
stp116
Rp117
ag2
(L23952266L
L25000842L
(dp118
S'md5sum'
p119
S'e1a0d06d29b2c19c0039a2ae461d6b1a'
p120
stp121
Rp122
ag2
(L25000842L
L26049418L
(dp123
S'md5sum'
p124
S'4030f78f8b25baa0e032f49370e46ef9'
p125
stp126
Rp127
ag2
(L26049418L
L27097994L
(dp128
S'md5sum'
p129
S'0176db2e68fc821969b127c14ee92d15'
p130
stp131
Rp132
ag2
(L27097994L
L28146570L
(dp133
S'md5sum'
p134
S'9474a21f56d192224409b3c1c2aaf537'
p135
stp136
Rp137
ag2
(L28146570L
L29195146L
(dp138
S'md5sum'
p139
S'6bcc3c8570ba3617cd5726d0379f5e10'
p140
stp141
Rp142
ag2
(L29195146L
L30243722L
(dp143
S'md5sum'
p144
S'580043a1383268cb8665d0cc2bbed819'
p145
stp146
Rp147
ag2
(L30243722L
L31292298L
(dp148
S'md5sum'
p149
S'174722655d749a83c7ac92da835791b5'
p150
stp151
Rp152
ag2
(L31292298L
L32340874L
(dp153
S'md5sum'
p154
S'0bedd40654e6c0ab52ed29d94e33c6e6'
p155
stp156
Rp157
ag2
(L32340874L
L33389450L
(dp158
S'md5sum'
p159
S'2c2be0dae2c33572c01473055dddef89'
p160
stp161
Rp162
ag2
(L33389450L
L34438026L
(dp163
S'md5sum'
p164
S'58fa92de07a3e28921d660ce2a422fb6'
p165
stp166
Rp167
ag2
(L34438026L
L35321620L
(dp168
S'md5sum'
p169
S'a068158444ab8c3aa2dd2164aeb1e281'
p170
stp171
Rp172
ag2
(L35321620L
L36370196L
(dp173
S'md5sum'
p174
S'd05069a40f33692ddfaa9d128310aece'
p175
stp176
Rp177
ag2
(L36370196L
L37418772L
(dp178
S'md5sum'
p179
S'a90aff77a686b2097774c4040733a0c3'
p180
stp181
Rp182
ag2
(L37418772L
L38467348L
(dp183
S'md5sum'
p184
S'ac7fac331b594c626cd61b73b8182531'
p185
stp186
Rp187
ag2
(L38467348L
L39515924L
(dp188
S'md5sum'
p189
S'960427e55e966b9f2c8ca926956208b6'
p190
stp191
Rp192
ag2
(L39515924L
L40564500L
(dp193
S'md5sum'
p194
S'7a6b8e9ffe5d5096f98ef68b0e56fbd1'
p195
stp196
Rp197
ag2
(L40564500L
L41613076L
(dp198
S'md5sum'
p199
S'21d5f0357a800d12c5ea7b24872fb5bb'
p200
stp201
Rp202
ag2
(L41613076L
L42661652L
(dp203
S'md5sum'
p204
S'1fbe783d2ce01d1ba3055f949615a3fc'
p205
stp206
Rp207
ag2
(L42661652L
L43710228L
(dp208
S'md5sum'
p209
S'69c34dc522d1b589385eef9da6a1cf7a'
p210
stp211
Rp212
ag2
(L43710228L
L44758804L
(dp213
S'md5sum'
p214
S'59632757fcc6df42a32ed7138c297281'
p215
stp216
Rp217
ag2
(L44758804L
L45807380L
(dp218
S'md5sum'
p219
S'19c5ef62b72742d85e89b67e14f7f858'
p220
stp221
Rp222
ag2
(L45807380L
L46855956L
(dp223
S'md5sum'
p224
S'c6fe818d0bdb166d6b965d93bb6f0812'
p225
stp226
Rp227
ag2
(L46855956L
L47904532L
(dp228
S'md5sum'
p229
S'1431753a640476465e4967e9491b4930'
p230
stp231
Rp232
ag2
(L47904532L
L48953108L
(dp233
S'md5sum'
p234
S'fa7b714e59d2155436bbf22cb17e8996'
p235
stp236
Rp237
ag2
(L48953108L
L50001684L
(dp238
S'md5sum'
p239
S'1e43f4063e50e2d44851eb231b2df5f2'
p240
stp241
Rp242
ag2
(L50001684L
L51050260L
(dp243
S'md5sum'
p244
S'029460878c46ade788541763a7c923d8'
p245
stp246
Rp247
ag2
(L51050260L
L52098836L
(dp248
S'md5sum'
p249
S'838c0cf6fa4dd600ea1b34c8d55f5ea2'
p250
stp251
Rp252
ag2
(L52098836L
L52982430L
(dp253
S'md5sum'
p254
S'd4c35b0623494643a8f01aa5080e59ee'
p255
stp256
Rp257
ag2
(L52982430L
L54031006L
(dp258
S'md5sum'
p259
S'da7097f3b6ba53745443cbe317ad5f37'
p260
stp261
Rp262
ag2
(L54031006L
L55079582L
(dp263
S'md5sum'
p264
S'311138be7fd90522c4b8e3448e988a09'
p265
stp266
Rp267
ag2
(L55079582L
L56128158L
(dp268
S'md5sum'
p269
S'0b2ccf1eff403d2c3b72f86d308653a8'
p270
stp271
Rp272
ag2
(L56128158L
L57176734L
(dp273
S'md5sum'
p274
S'e01312cbd69c25e4f1bb54746fb030ba'
p275
stp276
Rp277
ag2
(L57176734L
L58225310L
(dp278
S'md5sum'
p279
S'4f8b2e1c13660f2739eafaebc4aa7b5c'
p280
stp281
Rp282
ag2
(L58225310L
L59273886L
(dp283
S'md5sum'
p284
S'08967d9b5c411fefa9c5ab21e855b9b7'
p285
stp286
Rp287
ag2
(L59273886L
L60322462L
(dp288
S'md5sum'
p289
S'7e090d825dce8121ecaff951f018256e'
p290
stp291
Rp292
ag2
(L60322462L
L61371038L
(dp293
S'md5sum'
p294
S'2db0a21930e311ffa6bd5bdaebbdfdbe'
p295
stp296
Rp297
ag2
(L61371038L
L62419614L
(dp298
S'md5sum'
p299
S'7deae82126ec6e8cd682e6d136fca753'
p300
stp301
Rp302
ag2
(L62419614L
L63468190L
(dp303
S'md5sum'
p304
S'71fe5bdf6dbe7ce51c608ea4b0f8b061'
p305
stp306
Rp307
ag2
(L63468190L
L64516766L
(dp308
S'md5sum'
p309
S'57a6ecfcbbf9c60543611197aadc6ead'
p310
stp311
Rp312
ag2
(L64516766L
L65565342L
(dp313
S'md5sum'
p314
S'12f20ff5a28d38448fa4c32def6c9476'
p315
stp316
Rp317
ag2
(L65565342L
L66613918L
(dp318
S'md5sum'
p319
S'6ac998b280c5899155e8687618dc4907'
p320
stp321
Rp322
ag2
(L66613918L
L67662494L
(dp323
S'md5sum'
p324
S'acfa3ebc660aad04206ae85fd112ec68'
p325
stp326
Rp327
ag2
(L67662494L
L68711070L
(dp328
S'md5sum'
p329
S'a9beabe93cfa20d51b5055275d7a4576'
p330
stp331
Rp332
ag2
(L68711070L
L69759646L
(dp333
S'md5sum'
p334
S'c1c9c6e8f71e6c74eb491ba401ca0fea'
p335
stp336
Rp337
ag2
(L69759646L
L70643240L
(dp338
S'md5sum'
p339
S'fc7ee1f509e59ef6555a2593e9f40114'
p340
stp341
Rp342
ag2
(L70643240L
L71691816L
(dp343
S'md5sum'
p344
S'aed667fe58197225544c561b6fe0835a'
p345
stp346
Rp347
ag2
(L71691816L
L72740392L
(dp348
S'md5sum'
p349
S'77b225e6c856eba5b416672cf74b4b2f'
p350
stp351
Rp352
ag2
(L72740392L
L73788968L
(dp353
S'md5sum'
p354
S'd7bb3e2e23fa519e4f28d7d576bfd6b1'
p355
stp356
Rp357
ag2
(L73788968L
L74837544L
(dp358
S'md5sum'
p359
S'70c8e5b65d6011562ed778c14b569d13'
p360
stp361
Rp362
ag2
(L74837544L
L75886120L
(dp363
S'md5sum'
p364
S'5df0e6724f226d1dc3b75a14ec02bbfa'
p365
stp366
Rp367
ag2
(L75886120L
L76934696L
(dp368
S'md5sum'
p369
S'6078f6b432c5e16f3f39da85bdf97a06'
p370
stp371
Rp372
ag2
(L76934696L
L77983272L
(dp373
S'md5sum'
p374
S'fc12dd5d703446e4eb41b3a53aa75edc'
p375
stp376
Rp377
ag2
(L77983272L
L79031848L
(dp378
S'md5sum'
p379
S'fb15baabf19242105a57b856bf6a8a05'
p380
stp381
Rp382
ag2
(L79031848L
L80080424L
(dp383
S'md5sum'
p384
S'64532161f172cd09b4fdda9126961ba9'
p385
stp386
Rp387
ag2
(L80080424L
L81129000L
(dp388
S'md5sum'
p389
S'90709df81fa7165b598b34fa286cb114'
p390
stp391
Rp392
ag2
(L81129000L
L82177576L
(dp393
S'md5sum'
p394
S'74d70ebe7805425aad15cfce875b8bc7'
p395
stp396
Rp397
ag2
(L82177576L
L83226152L
(dp398
S'md5sum'
p399
S'f6e6c03c67f0b583db3fa0410b4b43df'
p400
stp401
Rp402
ag2
(L83226152L
L84274728L
(dp403
S'md5sum'
p404
S'14ef43c928cc6b68458d38fdff6c4c32'
p405
stp406
Rp407
ag2
(L84274728L
L85323304L
(dp408
S'md5sum'
p409
S'4dcedbbac4fef2d54dc4887f4afd18fb'
p410
stp411
Rp412
ag2
(L85323304L
L86371880L
(dp413
S'md5sum'
p414
S'44a2236cea53aca93d9c7862f64b683d'
p415
stp416
Rp417
ag2
(L86371880L
L87420456L
(dp418
S'md5sum'
p419
S'c45007ded571aecda86c8f98472450fc'
p420
stp421
Rp422
ag2
(L87420456L
L88304050L
(dp423
S'md5sum'
p424
S'a5da56d8f9ce31b40d7d02d4bb72c952'
p425
stp426
Rp427
ag2
(L88304050L
L89352626L
(dp428
S'md5sum'
p429
S'c51ceee7df9c2d25065e2e1b5ef3d902'
p430
stp431
Rp432
ag2
(L89352626L
L90401202L
(dp433
S'md5sum'
p434
S'5e9d26414a3910ba079c8ba8d80c8f0f'
p435
stp436
Rp437
ag2
(L90401202L
L91449778L
(dp438
S'md5sum'
p439
S'14005bf51f3ad9df1def2ccd26490e39'
p440
stp441
Rp442
ag2
(L91449778L
L92498354L
(dp443
S'md5sum'
p444
S'73a5c799b9256152716ec969b19bcf67'
p445
stp446
Rp447
ag2
(L92498354L
L93546930L
(dp448
S'md5sum'
p449
S'8ce988d9f769d97d57e6a9fddf29a3d5'
p450
stp451
Rp452
ag2
(L93546930L
L94595506L
(dp453
S'md5sum'
p454
S'0505ba2d22df4f0df209f743c46fa1e0'
p455
stp456
Rp457
ag2
(L94595506L
L95644082L
(dp458
S'md5sum'
p459
S'75937d9f4c2739d0ce6852455abe5ba7'
p460
stp461
Rp462
ag2
(L95644082L
L96692658L
(dp463
S'md5sum'
p464
S'c9a4f399fa48f7086f4ee3a0d64049f4'
p465
stp466
Rp467
ag2
(L96692658L
L97741234L
(dp468
S'md5sum'
p469
S'a0bb4deddbb7a23dc2fd963bbf693c4d'
p470
stp471
Rp472
ag2
(L97741234L
L98789810L
(dp473
S'md5sum'
p474
S'b30bb4127b35c4ee61f21a18b126d8de'
p475
stp476
Rp477
ag2
(L98789810L
L99838386L
(dp478
S'md5sum'
p479
S'938beb850133402fc6a04ab88b253205'
p480
stp481
Rp482
ag2
(L99838386L
L100886962L
(dp483
S'md5sum'
p484
S'4840b628b5d07ace801483f48740ac92'
p485
stp486
Rp487
ag2
(L100886962L
L101935538L
(dp488
S'md5sum'
p489
S'448762db3e3bb18230a3a296632b3d8c'
p490
stp491
Rp492
ag2
(L101935538L
L102984114L
(dp493
S'md5sum'
p494
S'283fb56c575c0e1bc036700581945ae5'
p495
stp496
Rp497
ag2
(L102984114L
L104032690L
(dp498
S'md5sum'
p499
S'6f2353a1f7419f64b952cc07b887cc00'
p500
stp501
Rp502
ag2
(L104032690L
L105081266L
(dp503
S'md5sum'
p504
S'5b4895ec5acc92a7edbfe20db7026087'
p505
stp506
Rp507
ag2
(L105081266L
L105964860L
(dp508
S'md5sum'
p509
S'e0298ddd6102a8446f69e85bd48b6dba'
p510
stp511
Rp512
ag2
(L105964860L
L107013436L
(dp513
S'md5sum'
p514
S'33e2376c429055a5638f64c2da09ab29'
p515
stp516
Rp517
ag2
(L107013436L
L108062012L
(dp518
S'md5sum'
p519
S'515a3723cb6605a34e9ae7b8e2ddadc4'
p520
stp521
Rp522
ag2
(L108062012L
L109110588L
(dp523
S'md5sum'
p524
S'bf6fc3c5fb068601f89fe838c0f8d61a'
p525
stp526
Rp527
ag2
(L109110588L
L110159164L
(dp528
S'md5sum'
p529
S'288904d2c2942f35dbe03fbee0761d2d'
p530
stp531
Rp532
ag2
(L110159164L
L111207740L
(dp533
S'md5sum'
p534
S'22c27635e0b93d90c145eca385ace6a9'
p535
stp536
Rp537
ag2
(L111207740L
L112256316L
(dp538
S'md5sum'
p539
S'6a4de207f413316053c418d6c4ad8244'
p540
stp541
Rp542
ag2
(L112256316L
L113304892L
(dp543
S'md5sum'
p544
S'3a7cf7cb40df07dc231e3cd9df9267a1'
p545
stp546
Rp547
ag2
(L113304892L
L114353468L
(dp548
S'md5sum'
p549
S'962fef4e672b4be56a948191692673fb'
p550
stp551
Rp552
ag2
(L114353468L
L115402044L
(dp553
S'md5sum'
p554
S'f33c10380498d281b6a46a9797108230'
p555
stp556
Rp557
ag2
(L115402044L
L116450620L
(dp558
S'md5sum'
p559
S'eb5eace53771588aebf270e22d019b71'
p560
stp561
Rp562
ag2
(L116450620L
L117499196L
(dp563
S'md5sum'
p564
S'2510ba7247d9c8547cbb246c19bb586c'
p565
stp566
Rp567
ag2
(L117499196L
L118547772L
(dp568
S'md5sum'
p569
S'99bc73c7bcd69720a1628e32753b2334'
p570
stp571
Rp572
ag2
(L118547772L
L119596348L
(dp573
S'md5sum'
p574
S'56bcadda9d84483461358f4c7e6995e1'
p575
stp576
Rp577
ag2
(L119596348L
L120644924L
(dp578
S'md5sum'
p579
S'ef0fa5ed9b16235f929c1adad8ae4847'
p580
stp581
Rp582
ag2
(L120644924L
L121693500L
(dp583
S'md5sum'
p584
S'5ff05d856c964d61008f4d6e5a939075'
p585
stp586
Rp587
ag2
(L121693500L
L122742076L
(dp588
S'md5sum'
p589
S'dd48184d356d120dd97264306d062cf0'
p590
stp591
Rp592
ag2
(L122742076L
L123625670L
(dp593
S'md5sum'
p594
S'0c3fe005f50467b964c6cfa9ffba26f6'
p595
stp596
Rp597
ag2
(L123625670L
L124674246L
(dp598
S'md5sum'
p599
S'5578fc73030765b3e3761865a99fd9e5'
p600
stp601
Rp602
ag2
(L124674246L
L125722822L
(dp603
S'md5sum'
p604
S'f738a3ace28642d58ebf08bf262bafe8'
p605
stp606
Rp607
ag2
(L125722822L
L126771398L
(dp608
S'md5sum'
p609
S'eed5ad1745e205ca456957482a06a68b'
p610
stp611
Rp612
ag2
(L126771398L
L127819974L
(dp613
S'md5sum'
p614
S'91ec7f9f74a2032d4b1d3f06977f014b'
p615
stp616
Rp617
ag2
(L127819974L
L128868550L
(dp618
S'md5sum'
p619
S'2583bdbb17145eeb54208a8f6966e7a9'
p620
stp621
Rp622
ag2
(L128868550L
L129917126L
(dp623
S'md5sum'
p624
S'd5cddef27f84b8390ebc8011bee5159d'
p625
stp626
Rp627
ag2
(L129917126L
L130965702L
(dp628
S'md5sum'
p629
S'f20af7bd22f16579d1fca7a510b0480f'
p630
stp631
Rp632
ag2
(L130965702L
L132014278L
(dp633
S'md5sum'
p634
S'c6fc0e0274992074133564bdf74daae9'
p635
stp636
Rp637
ag2
(L132014278L
L133062854L
(dp638
S'md5sum'
p639
S'819c0b7c4995a62e26b257bc4578f791'
p640
stp641
Rp642
ag2
(L133062854L
L134111430L
(dp643
S'md5sum'
p644
S'e4c8354e19120db8cbf3009511ea8a77'
p645
stp646
Rp647
ag2
(L134111430L
L135160006L
(dp648
S'md5sum'
p649
S'2aaac4b93cde1d2b882730eb98f098c3'
p650
stp651
Rp652
ag2
(L135160006L
L136208582L
(dp653
S'md5sum'
p654
S'cc9cb1f9b9de47040e17b7671f8fe960'
p655
stp656
Rp657
ag2
(L136208582L
L137257158L
(dp658
S'md5sum'
p659
S'77d4c3282e04776a406d4700093b7d34'
p660
stp661
Rp662
ag2
(L137257158L
L138305734L
(dp663
S'md5sum'
p664
S'a9cba04b49290d37d01d2431437f9905'
p665
stp666
Rp667
ag2
(L138305734L
L139354310L
(dp668
S'md5sum'
p669
S'c7ce5e6798a08773be6206ffd3a0979c'
p670
stp671
Rp672
ag2
(L139354310L
L140402886L
(dp673
S'md5sum'
p674
S'ddbe97449ea2f8256c2651039ac6c420'
p675
stp676
Rp677
ag2
(L140402886L
L141286480L
(dp678
S'md5sum'
p679
S'918d90379565f46bce7ea10bc3fabbe3'
p680
stp681
Rp682
ag2
(L141286480L
L141286482L
(dp683
S'md5sum'
p684
S'8cf8463b34caa8ac871a52d5dd7ad1ef'
p685
stp686
Rp687
atp688
Rp689
.